
AIRTEST.elf:     file format elf32-littlenios2
AIRTEST.elf
architecture: nios2, flags 0x00000112:
EXEC_P, HAS_SYMS, D_PAGED
start address 0x000001b8

Program Header:
    LOAD off    0x00001020 vaddr 0x00000020 paddr 0x00000020 align 2**12
         filesz 0x000103b4 memsz 0x000103b4 flags r-x
    LOAD off    0x000113d4 vaddr 0x000103d4 paddr 0x0001323c align 2**12
         filesz 0x00002e68 memsz 0x00002e68 flags rw-
    LOAD off    0x000150a4 vaddr 0x000160a4 paddr 0x000160a4 align 2**12
         filesz 0x00000000 memsz 0x0000030c flags rw-
    LOAD off    0x00015000 vaddr 0x02001000 paddr 0x02001000 align 2**12
         filesz 0x00000020 memsz 0x00000020 flags r-x

Sections:
Idx Name          Size      VMA       LMA       File off  Algn
  0 .entry        00000020  02001000  02001000  00015000  2**5
                  CONTENTS, ALLOC, LOAD, READONLY, CODE
  1 .exceptions   00000198  00000020  00000020  00001020  2**2
                  CONTENTS, ALLOC, LOAD, READONLY, CODE
  2 .text         0000fbb4  000001b8  000001b8  000011b8  2**2
                  CONTENTS, ALLOC, LOAD, READONLY, CODE
  3 .rodata       00000668  0000fd6c  0000fd6c  00010d6c  2**2
                  CONTENTS, ALLOC, LOAD, READONLY, DATA
  4 .rwdata       00002e68  000103d4  0001323c  000113d4  2**2
                  CONTENTS, ALLOC, LOAD, DATA, SMALL_DATA
  5 .bss          0000030c  000160a4  000160a4  000150a4  2**2
                  ALLOC, SMALL_DATA
  6 .comment      00000023  00000000  00000000  00015020  2**0
                  CONTENTS, READONLY
  7 .debug_aranges 00000ff8  00000000  00000000  00015048  2**3
                  CONTENTS, READONLY, DEBUGGING
  8 .debug_info   00027d2e  00000000  00000000  00016040  2**0
                  CONTENTS, READONLY, DEBUGGING
  9 .debug_abbrev 0000aac5  00000000  00000000  0003dd6e  2**0
                  CONTENTS, READONLY, DEBUGGING
 10 .debug_line   0000b459  00000000  00000000  00048833  2**0
                  CONTENTS, READONLY, DEBUGGING
 11 .debug_frame  00002218  00000000  00000000  00053c8c  2**2
                  CONTENTS, READONLY, DEBUGGING
 12 .debug_str    00003760  00000000  00000000  00055ea4  2**0
                  CONTENTS, READONLY, DEBUGGING
 13 .debug_loc    000118cc  00000000  00000000  00059604  2**0
                  CONTENTS, READONLY, DEBUGGING
 14 .debug_alt_sim_info 00000060  00000000  00000000  0006aed0  2**2
                  CONTENTS, READONLY, DEBUGGING
 15 .debug_ranges 00000ad8  00000000  00000000  0006af30  2**3
                  CONTENTS, READONLY, DEBUGGING
 16 .thread_model 00000003  00000000  00000000  0006f715  2**0
                  CONTENTS, READONLY
 17 .cpu          0000000a  00000000  00000000  0006f718  2**0
                  CONTENTS, READONLY
 18 .qsys         00000001  00000000  00000000  0006f722  2**0
                  CONTENTS, READONLY
 19 .simulation_enabled 00000001  00000000  00000000  0006f723  2**0
                  CONTENTS, READONLY
 20 .sysid_hash   00000004  00000000  00000000  0006f724  2**0
                  CONTENTS, READONLY
 21 .sysid_base   00000004  00000000  00000000  0006f728  2**0
                  CONTENTS, READONLY
 22 .sysid_time   00000004  00000000  00000000  0006f72c  2**0
                  CONTENTS, READONLY
 23 .stderr_dev   00000009  00000000  00000000  0006f730  2**0
                  CONTENTS, READONLY
 24 .stdin_dev    00000009  00000000  00000000  0006f739  2**0
                  CONTENTS, READONLY
 25 .stdout_dev   00000009  00000000  00000000  0006f742  2**0
                  CONTENTS, READONLY
 26 .sopc_system_name 0000000d  00000000  00000000  0006f74b  2**0
                  CONTENTS, READONLY
 27 .quartus_project_dir 0000001b  00000000  00000000  0006f758  2**0
                  CONTENTS, READONLY
 28 .jdi          00005239  00000000  00000000  0006f773  2**0
                  CONTENTS, READONLY
 29 .sopcinfo     0007cf7e  00000000  00000000  000749ac  2**0
                  CONTENTS, READONLY
SYMBOL TABLE:
02001000 l    d  .entry	00000000 .entry
00000020 l    d  .exceptions	00000000 .exceptions
000001b8 l    d  .text	00000000 .text
0000fd6c l    d  .rodata	00000000 .rodata
000103d4 l    d  .rwdata	00000000 .rwdata
000160a4 l    d  .bss	00000000 .bss
00000000 l    d  .comment	00000000 .comment
00000000 l    d  .debug_aranges	00000000 .debug_aranges
00000000 l    d  .debug_info	00000000 .debug_info
00000000 l    d  .debug_abbrev	00000000 .debug_abbrev
00000000 l    d  .debug_line	00000000 .debug_line
00000000 l    d  .debug_frame	00000000 .debug_frame
00000000 l    d  .debug_str	00000000 .debug_str
00000000 l    d  .debug_loc	00000000 .debug_loc
00000000 l    d  .debug_alt_sim_info	00000000 .debug_alt_sim_info
00000000 l    d  .debug_ranges	00000000 .debug_ranges
00000000 l    df *ABS*	00000000 ../AIRTEST_bsp//obj/HAL/src/crt0.o
00000200 l       .text	00000000 alt_after_alt_main
00000000 l    df *ABS*	00000000 alt_exception_entry.o
00000094 l       .exceptions	00000000 alt_exception_unknown
00000000 l    df *ABS*	00000000 alt_irq_handler.c
00000000 l    df *ABS*	00000000 uart_co.c
00000204 l     F .text	00000050 uart_send_byte
00000254 l     F .text	0000006c uart_send_string
000002c0 l     F .text	000000b8 uart_init2
000004bc l     F .text	00000090 set_baudrate
00000378 l     F .text	00000144 uart_co_ISR
00000000 l    df *ABS*	00000000 uart_hmi.c
0000054c l     F .text	00000050 uart_send_byte
0000059c l     F .text	0000006c uart_send_string
00000608 l     F .text	00000034 uart_init6
0000069c l     F .text	00000090 set_baudrate
00000000 l    df *ABS*	00000000 uart_no2.c
0000072c l     F .text	00000050 uart_send_byte
0000077c l     F .text	0000006c uart_send_string
000007e8 l     F .text	000000b8 uart_init3
000009e4 l     F .text	00000090 set_baudrate
000008a0 l     F .text	00000144 uart_no2_ISR
00000000 l    df *ABS*	00000000 uart_o3.c
00000a74 l     F .text	00000050 uart_send_byte
00000ac4 l     F .text	0000006c uart_send_string
00000b30 l     F .text	000000b8 uart_init4
00000d2c l     F .text	00000090 set_baudrate
00000be8 l     F .text	00000144 uart_o3_ISR
00000000 l    df *ABS*	00000000 uart_sds011.c
00000dbc l     F .text	00000050 uart_send_byte
00000e0c l     F .text	0000006c uart_send_string
00000e78 l     F .text	000000b0 uart_init5
000010c0 l     F .text	00000090 set_baudrate
00000f28 l     F .text	00000198 uart_sds011_ISR
00000000 l    df *ABS*	00000000 uart_so2.c
00001150 l     F .text	00000050 uart_send_byte
000011a0 l     F .text	0000006c uart_send_string
0000120c l     F .text	000000b8 uart_init
000014b0 l     F .text	00000090 set_baudrate
000012c4 l     F .text	000001ec uart_so2_ISR
00000000 l    df *ABS*	00000000 main.c
00000000 l    df *ABS*	00000000 libgcc2.c
00000000 l    df *ABS*	00000000 fp-bit.c
00000000 l    df *ABS*	00000000 fp-bit.c
00000000 l    df *ABS*	00000000 fp-bit.c
00000000 l    df *ABS*	00000000 fp-bit.c
00000000 l    df *ABS*	00000000 fp-bit.c
0000240c l     F .text	00000354 _fpadd_parts
00000000 l    df *ABS*	00000000 fp-bit.c
00000000 l    df *ABS*	00000000 fp-bit.c
00000000 l    df *ABS*	00000000 fp-bit.c
00000000 l    df *ABS*	00000000 fp-bit.c
00000000 l    df *ABS*	00000000 fp-bit.c
00000000 l    df *ABS*	00000000 lib2-divmod.c
00002aa0 l     F .text	00000074 udivmodsi4
00000000 l    df *ABS*	00000000 libgcc2.c
00000000 l    df *ABS*	00000000 fp-bit.c
00000000 l    df *ABS*	00000000 fp-bit.c
00000000 l    df *ABS*	00000000 fp-bit.c
00000000 l    df *ABS*	00000000 fp-bit.c
00000000 l    df *ABS*	00000000 fp-bit.c
00000000 l    df *ABS*	00000000 libgcc2.c
00000000 l    df *ABS*	00000000 libgcc2.c
00000000 l    df *ABS*	00000000 libgcc2.c
00000000 l    df *ABS*	00000000 sprintf.c
00000000 l    df *ABS*	00000000 vfprintf.c
000033b4 l     F .text	00000034 __sprint_r
0001019a l     O .rodata	00000010 blanks.3515
000101aa l     O .rodata	00000010 zeroes.3516
00000000 l    df *ABS*	00000000 wsetup.c
00000000 l    df *ABS*	00000000 dtoa.c
00005378 l     F .text	00000208 quorem
00000000 l    df *ABS*	00000000 fflush.c
00000000 l    df *ABS*	00000000 findfp.c
00006db4 l     F .text	00000008 __fp_lock
00006dbc l     F .text	00000008 __fp_unlock
00000000 l    df *ABS*	00000000 mallocr.c
00000000 l    df *ABS*	00000000 fvwrite.c
00000000 l    df *ABS*	00000000 fwalk.c
00000000 l    df *ABS*	00000000 impure.c
00011278 l     O .rwdata	00000400 impure_data
00000000 l    df *ABS*	00000000 locale.c
000101e0 l     O .rodata	00000030 lconv
00000000 l    df *ABS*	00000000 makebuf.c
00000000 l    df *ABS*	00000000 mallocr.c
00000000 l    df *ABS*	00000000 memchr.c
00000000 l    df *ABS*	00000000 memcpy.c
00000000 l    df *ABS*	00000000 memmove.c
00000000 l    df *ABS*	00000000 memset.c
00000000 l    df *ABS*	00000000 mprec.c
00010328 l     O .rodata	0000000c p05.2435
00000000 l    df *ABS*	00000000 mallocr.c
00000000 l    df *ABS*	00000000 s_isinfd.c
00000000 l    df *ABS*	00000000 s_isnand.c
00000000 l    df *ABS*	00000000 sbrkr.c
00000000 l    df *ABS*	00000000 stdio.c
00000000 l    df *ABS*	00000000 strcmp.c
00000000 l    df *ABS*	00000000 strlen.c
00000000 l    df *ABS*	00000000 writer.c
00000000 l    df *ABS*	00000000 mallocr.c
00000000 l    df *ABS*	00000000 closer.c
00000000 l    df *ABS*	00000000 fclose.c
00000000 l    df *ABS*	00000000 fstatr.c
00000000 l    df *ABS*	00000000 int_errno.c
00000000 l    df *ABS*	00000000 isattyr.c
00000000 l    df *ABS*	00000000 lseekr.c
00000000 l    df *ABS*	00000000 readr.c
00000000 l    df *ABS*	00000000 libgcc2.c
00000000 l    df *ABS*	00000000 libgcc2.c
00000000 l    df *ABS*	00000000 fp-bit.c
00000000 l    df *ABS*	00000000 fp-bit.c
00000000 l    df *ABS*	00000000 fp-bit.c
00000000 l    df *ABS*	00000000 fp-bit.c
00000000 l    df *ABS*	00000000 fp-bit.c
00000000 l    df *ABS*	00000000 fp-bit.c
00000000 l    df *ABS*	00000000 fp-bit.c
00000000 l    df *ABS*	00000000 libgcc2.c
00000000 l    df *ABS*	00000000 alt_close.c
0000b8cc l     F .text	00000050 alt_get_errno
00000000 l    df *ABS*	00000000 alt_dev.c
0000b9e4 l     F .text	0000002c alt_dev_null_write
00000000 l    df *ABS*	00000000 alt_errno.c
00000000 l    df *ABS*	00000000 alt_fstat.c
0000ba10 l     F .text	00000050 alt_get_errno
00000000 l    df *ABS*	00000000 alt_iic.c
00000000 l    df *ABS*	00000000 alt_iic_isr_register.c
00000000 l    df *ABS*	00000000 alt_irq_vars.c
00000000 l    df *ABS*	00000000 alt_isatty.c
0000bdd4 l     F .text	00000050 alt_get_errno
00000000 l    df *ABS*	00000000 alt_load.c
0000bec4 l     F .text	0000006c alt_load_section
00000000 l    df *ABS*	00000000 alt_lseek.c
0000bfb0 l     F .text	00000050 alt_get_errno
00000000 l    df *ABS*	00000000 alt_main.c
00000000 l    df *ABS*	00000000 alt_malloc_lock.c
00000000 l    df *ABS*	00000000 alt_read.c
0000c188 l     F .text	00000050 alt_get_errno
00000000 l    df *ABS*	00000000 alt_release_fd.c
00000000 l    df *ABS*	00000000 alt_sbrk.c
00013228 l     O .rwdata	00000004 heap_end
00000000 l    df *ABS*	00000000 alt_usleep.c
00000000 l    df *ABS*	00000000 alt_write.c
0000c408 l     F .text	00000050 alt_get_errno
00000000 l    df *ABS*	00000000 alt_sys_init.c
0000c544 l     F .text	00000038 alt_dev_reg
00011c34 l     O .rwdata	000000c8 epcs_flash
00011cfc l     O .rwdata	00001060 jtag_uart
00012d5c l     O .rwdata	000000c4 uart_co
00012e20 l     O .rwdata	000000c4 uart_hmi
00012ee4 l     O .rwdata	000000c4 uart_no2
00012fa8 l     O .rwdata	000000c4 uart_o3
0001306c l     O .rwdata	000000c4 uart_sds011
00013130 l     O .rwdata	000000c4 uart_so2
00000000 l    df *ABS*	00000000 altera_avalon_epcs_flash_controller.c
0000c6c4 l     F .text	00000038 alt_flash_device_register
0000c750 l     F .text	0000028c alt_epcs_flash_query
0000c9dc l     F .text	000000e8 alt_epcs_flash_memcmp
0000cdb0 l     F .text	00000094 alt_epcs_test_address
00000000 l    df *ABS*	00000000 altera_avalon_jtag_uart_fd.c
00000000 l    df *ABS*	00000000 altera_avalon_jtag_uart_init.c
0000d278 l     F .text	00000204 altera_avalon_jtag_uart_irq
0000d47c l     F .text	000000a4 altera_avalon_jtag_uart_timeout
00000000 l    df *ABS*	00000000 altera_avalon_jtag_uart_ioctl.c
00000000 l    df *ABS*	00000000 altera_avalon_jtag_uart_read.c
00000000 l    df *ABS*	00000000 altera_avalon_jtag_uart_write.c
00000000 l    df *ABS*	00000000 altera_avalon_uart_fd.c
00000000 l    df *ABS*	00000000 altera_avalon_uart_init.c
0000dc70 l     F .text	00000098 altera_avalon_uart_irq
0000dd08 l     F .text	000000d8 altera_avalon_uart_rxirq
0000dde0 l     F .text	0000013c altera_avalon_uart_txirq
00000000 l    df *ABS*	00000000 altera_avalon_uart_read.c
0000df70 l     F .text	00000050 alt_get_errno
00000000 l    df *ABS*	00000000 altera_avalon_uart_write.c
0000e1c4 l     F .text	00000050 alt_get_errno
00000000 l    df *ABS*	00000000 epcs_commands.c
0000e418 l     F .text	00000038 epcs_test_wip
0000e450 l     F .text	00000038 epcs_await_wip_released
00000000 l    df *ABS*	00000000 alt_alarm_start.c
00000000 l    df *ABS*	00000000 alt_busy_sleep.c
00000000 l    df *ABS*	00000000 alt_dcache_flush_all.c
00000000 l    df *ABS*	00000000 alt_dev_llist_insert.c
0000ecb8 l     F .text	00000050 alt_get_errno
00000000 l    df *ABS*	00000000 alt_do_ctors.c
00000000 l    df *ABS*	00000000 alt_do_dtors.c
00000000 l    df *ABS*	00000000 alt_flash_dev.c
00000000 l    df *ABS*	00000000 alt_icache_flush_all.c
00000000 l    df *ABS*	00000000 alt_io_redirect.c
0000ef48 l     F .text	000000c0 alt_open_fd
00000000 l    df *ABS*	00000000 alt_open.c
0000f080 l     F .text	00000050 alt_get_errno
0000f0d0 l     F .text	000000cc alt_file_locked
00000000 l    df *ABS*	00000000 alt_tick.c
00000000 l    df *ABS*	00000000 altera_nios2_qsys_irq.c
00000000 l    df *ABS*	00000000 altera_avalon_spi.c
00000000 l    df *ABS*	00000000 alt_find_dev.c
00000000 l    df *ABS*	00000000 alt_find_file.c
00000000 l    df *ABS*	00000000 alt_get_fd.c
00000000 l    df *ABS*	00000000 alt_icache_flush.c
00000000 l    df *ABS*	00000000 atexit.c
00000000 l    df *ABS*	00000000 exit.c
00000000 l    df *ABS*	00000000 memcmp.c
00000000 l    df *ABS*	00000000 __atexit.c
00000000 l    df *ABS*	00000000 __call_atexit.c
00000000 l    df *ABS*	00000000 alt_exit.c
00000000 l    df *ABS*	00000000 
0000970c g     F .text	00000074 _mprec_log10
0000179c g     F .text	0000005c OLED_WrDat
0000cd24 g     F .text	0000008c alt_epcs_flash_get_info
000097fc g     F .text	00000084 __any_on
0000a4f8 g     F .text	00000064 _isatty_r
00010210 g     O .rodata	00000028 __mprec_tinytens
0000c0d0 g     F .text	00000078 alt_main
000032ac g     F .text	00000044 __ashldi3
00016120 g     O .bss	00000100 alt_irq
0000a55c g     F .text	0000006c _lseek_r
0001323c g       *ABS*	00000000 __flash_rwdata_start
0000b620 g     F .text	0000005c __eqdf2
000163b0 g       *ABS*	00000000 __alt_heap_start
0000a020 g     F .text	0000005c __sseek
00006e44 g     F .text	0000010c __sinit
00007adc g     F .text	0000009c _setlocale_r
00006dd0 g     F .text	00000064 __sfmoreglue
00001854 g     F .text	00000078 OLED_Set_Pos
0000c168 g     F .text	00000020 __malloc_unlock
000021e8 g     F .text	0000013c __divsf3
00001ca4 g     F .text	00000110 OLED_P16x16Ch
000086d4 g     F .text	00000128 memmove
00006e34 g     F .text	00000010 _cleanup
000088d8 g     F .text	000000a8 _Balloc
000105b0 g     O .rwdata	000000e4 uart_o3
02001000 g       *ABS*	00000000 __alt_mem_epcs_flash
00001640 g     F .text	0000009c ack
0000b6d8 g     F .text	00000064 __gtdf2
00000000  w      *UND*	00000000 __errno
0000e488 g     F .text	000000f8 epcs_sector_erase
02001000 g     F .entry	0000001c __reset
00000020 g       *ABS*	00000000 __flash_exceptions_start
0000a490 g     F .text	00000068 _fstat_r
000160bc g     O .bss	00000004 errno
0000294c g     F .text	00000038 __make_dp
000160c8 g     O .bss	00000004 alt_argv
0001b1f4 g       *ABS*	00000000 _gp
0000c3d8 g     F .text	00000030 usleep
00011ab4 g     O .rwdata	00000180 alt_fd_list
000015b4 g     F .text	0000008c IIC_Stop
0000e6c4 g     F .text	00000068 epcs_write_status_register
0000f6b4 g     F .text	00000090 alt_find_dev
000085dc g     F .text	000000f8 memcpy
00001a08 g     F .text	00000124 OLED_Init
00006dc4 g     F .text	0000000c _cleanup_r
000016dc g     F .text	000000c0 Write_IIC_Byte
0000b798 g     F .text	000000d4 __floatsidf
0000f008 g     F .text	00000078 alt_io_redirect
0000b73c g     F .text	0000005c __ltdf2
0000fd6c g       *ABS*	00000000 __DTOR_END__
0000ceb8 g     F .text	00000104 alt_epcs_flash_write_block
00009668 g     F .text	000000a4 __ratio
0000d67c g     F .text	00000218 altera_avalon_jtag_uart_read
00000000  w      *UND*	00000000 malloc
00002bc0 g     F .text	00000008 __udivsi3
0000be24 g     F .text	000000a0 isatty
00010260 g     O .rodata	000000c8 __mprec_tens
00007b78 g     F .text	0000000c __locale_charset
0001077c g     O .rwdata	000000ec uart_so2
00002164 g     F .text	00000084 __fixunsdfsi
0000f90c g     F .text	0000008c alt_icache_flush
000160b8 g     O .bss	00000004 __malloc_top_pad
00013200 g     O .rwdata	00000004 __mb_cur_max
00007b84 g     F .text	0000000c _localeconv_r
000103d4 g     O .rwdata	000000e4 uart_co
00008cd8 g     F .text	0000003c __i2b
00007498 g     F .text	000004e4 __sfvwrite_r
00009ee0 g     F .text	00000064 _sbrk_r
0000a5c8 g     F .text	0000006c _read_r
00011678 g     O .rwdata	0000000c __lc_ctype
0001321c g     O .rwdata	00000004 alt_max_fd
00003094 g     F .text	00000104 __unpack_d
0000a340 g     F .text	0000013c _fclose_r
00006d84 g     F .text	00000030 fflush
000160b4 g     O .bss	00000004 __malloc_max_sbrked_mem
000023c8 g     F .text	00000044 __extendsfdf2
00016100 g     O .bss	00000020 temp
00002760 g     F .text	00000054 __adddf3
0000ce44 g     F .text	00000074 alt_epcs_flash_erase_block
000093dc g     F .text	00000148 __b2d
0000abfc g     F .text	0000058c __umoddi3
0000c000 g     F .text	000000d0 lseek
000131f8 g     O .rwdata	00000004 _global_impure_ptr
0000e988 g     F .text	00000058 epcs_exit_4_bytes_mode
00009880 g     F .text	000005fc _realloc_r
000163b0 g       *ABS*	00000000 __bss_end
0000bce4 g     F .text	000000f0 alt_iic_isr_register
0000f388 g     F .text	00000104 alt_tick
0000a634 g     F .text	000005c8 __udivdi3
00010238 g     O .rodata	00000028 __mprec_bigtens
00008abc g     F .text	00000104 __s2b
00002984 g     F .text	0000011c __floatunsidf
0000917c g     F .text	00000058 __mcmp
0000dbc8 g     F .text	000000a8 altera_avalon_uart_init
0000705c g     F .text	00000018 __fp_lock_all
0000bc98 g     F .text	0000004c alt_ic_irq_enabled
00010c88 g     O .rwdata	000005f0 F8X16
0000f2f0 g     F .text	00000098 alt_alarm_stop
00001970 g     F .text	00000098 OLED_CLS
000160c0 g     O .bss	00000004 alt_irq_active
000000ec g     F .exceptions	000000cc alt_irq_handler
00011a8c g     O .rwdata	00000028 alt_dev_null
00002da8 g     F .text	000000c8 __unpack_f
0000ec74 g     F .text	00000044 alt_dcache_flush_all
00008bc0 g     F .text	00000068 __hi0bits
00002878 g     F .text	000000d4 __fixdfsi
0001323c g       *ABS*	00000000 __ram_rwdata_end
00013214 g     O .rwdata	00000008 alt_dev_list
0000c458 g     F .text	000000ec write
000103d4 g       *ABS*	00000000 __ram_rodata_end
0000ba60 g     F .text	000000ac fstat
00003268 g     F .text	00000044 __lshrdi3
000104b8 g     O .rwdata	00000014 uart_hmi
00008ef4 g     F .text	0000012c __pow5mult
000160ac g     O .bss	00000004 __nlocale_changed
00002bc8 g     F .text	00000008 __umodsi3
0000e848 g     F .text	00000068 epcs_read_electronic_signature
000163b0 g       *ABS*	00000000 end
00002c7c g     F .text	0000012c __pack_f
0000e214 g     F .text	000001a8 altera_avalon_uart_write
0000d1b8 g     F .text	000000c0 altera_avalon_jtag_uart_init
0000fd6c g       *ABS*	00000000 __CTOR_LIST__
02000000 g       *ABS*	00000000 __alt_stack_pointer
0000db18 g     F .text	00000060 altera_avalon_uart_write_fd
00002bd0 g     F .text	000000ac __clzsi2
0000db78 g     F .text	00000050 altera_avalon_uart_close_fd
0000d894 g     F .text	00000224 altera_avalon_jtag_uart_write
0000704c g     F .text	00000004 __sfp_lock_acquire
000084e4 g     F .text	000000f8 memchr
000033e8 g     F .text	00001df8 ___vfprintf_internal_r
000032f0 g     F .text	00000058 _sprintf_r
000071c8 g     F .text	000002d0 _free_r
0000fb90 g     F .text	000001a0 __call_exitprocs
000160a8 g     O .bss	00000004 __mlocale_changed
00013204 g     O .rwdata	00000004 __malloc_sbrk_base
000001b8 g     F .text	0000004c _start
000160d0 g     O .bss	00000004 _alt_tick_rate
00009020 g     F .text	0000015c __lshift
0000f4ac g     F .text	00000208 alt_avalon_spi_command
000160d4 g     O .bss	00000004 _alt_nticks
0000c1d8 g     F .text	000000f0 read
0000c5b0 g     F .text	00000114 alt_sys_init
00002324 g     F .text	000000a4 __floatsisf
0000fa60 g     F .text	00000130 __register_exitproc
00008d14 g     F .text	000001e0 __multiply
0000d520 g     F .text	00000068 altera_avalon_jtag_uart_close
000103d4 g       *ABS*	00000000 __ram_rwdata_start
0000fd6c g       *ABS*	00000000 __ram_rodata_start
000160d8 g     O .bss	00000028 __malloc_current_mallinfo
00010868 g     O .rwdata	00000420 F16x16
00009524 g     F .text	00000144 __d2b
0000e3bc g     F .text	0000005c epcs_read_status_register
0000d054 g     F .text	00000060 altera_avalon_jtag_uart_read_fd
0000f858 g     F .text	000000b4 alt_get_fd
0000eb20 g     F .text	00000154 alt_busy_sleep
00003198 g     F .text	000000d0 __fpcmp_parts_d
0000a2dc g     F .text	00000064 _close_r
0000e8b0 g     F .text	00000080 epcs_read_device_id
0000f9e4 g     F .text	0000007c memcmp
0000d114 g     F .text	00000050 altera_avalon_jtag_uart_close_fd
000163b0 g       *ABS*	00000000 __alt_stack_base
00001540 g     F .text	00000074 IIC_Start
0000d164 g     F .text	00000054 altera_avalon_jtag_uart_ioctl_fd
00001b2c g     F .text	00000178 OLED_P8x16Str
00005204 g     F .text	00000174 __swsetup_r
0000b46c g     F .text	000001b4 __divdf3
00006f50 g     F .text	000000fc __sfp
00009780 g     F .text	0000007c __copybits
00011684 g     O .rwdata	00000408 __malloc_av_
00007058 g     F .text	00000004 __sinit_lock_release
0000063c g     F .text	00000060 datachange
0000b188 g     F .text	000002e4 __muldf3
00009f44 g     F .text	00000054 __sread
00010034 g     O .rodata	00000010 __thenan_sf
0000f744 g     F .text	00000114 alt_find_file
000131f4 g     O .rwdata	00000001 endoff
0000ed08 g     F .text	000000a0 alt_dev_llist_insert
0000c148 g     F .text	00000020 __malloc_lock
0000c328 g     F .text	000000b0 sbrk
00006b9c g     F .text	000001e8 _fflush_r
0000a220 g     F .text	000000bc _calloc_r
0001322c g     O .rwdata	00000008 alt_flash_dev_list
000160a4 g       *ABS*	00000000 __bss_start
000087fc g     F .text	000000dc memset
00001e2c g     F .text	00000338 main
000160cc g     O .bss	00000004 alt_envp
000160b0 g     O .bss	00000004 __malloc_max_total_mem
0000d0b4 g     F .text	00000060 altera_avalon_jtag_uart_write_fd
0000a07c g     F .text	00000008 __sclose
02000000 g       *ABS*	00000000 __alt_heap_limit
0000a47c g     F .text	00000014 fclose
00016220 g     O .bss	00000190 _atexit0
00005580 g     F .text	0000161c _dtoa_r
00007d60 g     F .text	00000784 _malloc_r
00013220 g     O .rwdata	00000004 alt_errno
0000797c g     F .text	000000a8 _fwalk
00002b14 g     F .text	00000050 __divsi3
00010044 g     O .rodata	00000014 __thenan_df
0000708c g     F .text	0000013c _malloc_trim_r
0000fd6c g       *ABS*	00000000 __CTOR_END__
0000cac4 g     F .text	00000260 alt_epcs_flash_write
0000a084 g     F .text	000000a4 strcmp
0000fd6c g       *ABS*	00000000 __flash_rodata_start
0000fd6c g       *ABS*	00000000 __DTOR_LIST__
00001db4 g     F .text	00000078 UART_Send_END
0000b67c g     F .text	0000005c __nedf2
000104cc g     O .rwdata	000000e4 uart_no2
0000c57c g     F .text	00000034 alt_irq_init
0000c2c8 g     F .text	00000060 alt_release_fd
00003348 g     F .text	0000006c sprintf
00010058 g     O .rodata	00000100 __clz_tab
000160a4 g     O .bss	00000004 _PathLocale
0000f998 g     F .text	00000014 atexit
0000a1b4 g     F .text	0000006c _write_r
00007b90 g     F .text	0000001c setlocale
0000fd6c g     O .rodata	00000228 F6x8
000131fc g     O .rwdata	00000004 _impure_ptr
000160c4 g     O .bss	00000004 alt_argc
0000ee04 g     F .text	0000005c _do_dtors
00000020 g       .exceptions	00000000 alt_irq_entry
0000937c g     F .text	00000060 __ulp
00009e7c g     F .text	00000038 __isinfd
00007074 g     F .text	00000018 __fp_unlock_all
0001320c g     O .rwdata	00000008 alt_fs_list
00000020 g       *ABS*	00000000 __ram_exceptions_start
00007bac g     F .text	0000000c localeconv
0000e580 g     F .text	000000f4 epcs_read_buffer
0000c6fc g     F .text	00000054 alt_epcs_flash_init
0000bb0c g     F .text	00000050 alt_ic_isr_register
0001323c g       *ABS*	00000000 _edata
0000dab8 g     F .text	00000060 altera_avalon_uart_read_fd
000163b0 g       *ABS*	00000000 _end
0000ee60 g     F .text	00000068 alt_flash_open_dev
000001b8 g       *ABS*	00000000 __ram_exceptions_end
0000d588 g     F .text	000000f4 altera_avalon_jtag_uart_ioctl
0000bbf8 g     F .text	000000a0 alt_ic_irq_disable
0000e930 g     F .text	00000058 epcs_enter_4_bytes_mode
00009f98 g     F .text	00000088 __swrite
00013208 g     O .rwdata	00000004 __malloc_trim_threshold
0000f48c g     F .text	00000020 altera_nios2_qsys_irq_init
0000f9ac g     F .text	00000038 exit
00007a24 g     F .text	000000b8 _fwalk_reent
000091d4 g     F .text	000001a8 __mdiff
0000eec8 g     F .text	00000050 alt_flash_close_dev
00002b64 g     F .text	0000005c __modsi3
02000000 g       *ABS*	00000000 __alt_data_end
00000020 g     F .exceptions	00000000 alt_exception
00007050 g     F .text	00000004 __sfp_lock_release
00000000 g       *ABS*	00000000 __alt_mem_sdram
000018cc g     F .text	000000a4 OLED_Fill
000017f8 g     F .text	0000005c OLED_WrCmd
0000df1c g     F .text	00000054 altera_avalon_uart_close
0000fd30 g     F .text	0000003c _exit
00009eb4 g     F .text	0000002c __isnand
0000e9e0 g     F .text	00000140 alt_alarm_start
0000b86c g     F .text	00000060 __muldi3
00007bb8 g     F .text	000001a8 __smakebuf_r
0000a128 g     F .text	0000008c strlen
0000e674 g     F .text	00000050 epcs_write_enable
0000f19c g     F .text	00000154 open
00002814 g     F .text	00000064 __gedf2
0000ef18 g     F .text	00000030 alt_icache_flush_all
00013224 g     O .rwdata	00000004 alt_priority_mask
0000bb5c g     F .text	0000009c alt_ic_irq_enable
000051e0 g     F .text	00000024 __vfprintf_internal
0000dfc0 g     F .text	00000204 altera_avalon_uart_read
00010694 g     O .rwdata	000000e8 uart_sds011
000027b4 g     F .text	00000060 __subdf3
0000cfbc g     F .text	00000098 alt_epcs_flash_read
00008c28 g     F .text	000000b0 __lo0bits
00013234 g     O .rwdata	00000008 alt_alarm_list
0000eda8 g     F .text	0000005c _do_ctors
0000b91c g     F .text	000000c8 close
0000bf30 g     F .text	00000080 alt_load
00002e70 g     F .text	00000224 __pack_d
00000000  w      *UND*	00000000 free
00007054 g     F .text	00000004 __sinit_lock_acquire
0000e72c g     F .text	0000011c epcs_write_buffer
000089a8 g     F .text	00000114 __multadd
00008980 g     F .text	00000028 _Bfree



Disassembly of section .entry:

02001000 <__reset>:
#if NIOS2_ICACHE_SIZE > 0 && defined(ALT_ALLOW_CODE_AT_RESET) && !defined(ALT_SIM_OPTIMIZE)
    /* Assume the instruction cache size is always a power of two. */
#if NIOS2_ICACHE_SIZE > 0x8000
    movhi r2, %hi(NIOS2_ICACHE_SIZE)
#else
    movui r2, NIOS2_ICACHE_SIZE
 2001000:	00840014 	movui	r2,4096
#endif

0:
    initi r2
 2001004:	1001483a 	initi	r2
    addi r2, r2, -NIOS2_ICACHE_LINE_SIZE
 2001008:	10bff804 	addi	r2,r2,-32
    bgt r2, zero, 0b
 200100c:	00bffd16 	blt	zero,r2,2001004 <__reset+0x4>
 * Jump to the _start entry point in the .text section if reset code
 * is allowed or if optimizing for RTL simulation.
 */
#if defined(ALT_ALLOW_CODE_AT_RESET) || defined(ALT_SIM_OPTIMIZE)
    /* Jump to the _start entry point in the .text section. */
    movhi r1, %hi(_start)
 2001010:	00400034 	movhi	at,0
    ori r1, r1, %lo(_start)
 2001014:	08406e14 	ori	at,at,440
    jmp r1
 2001018:	0800683a 	jmp	at
 200101c:	00000000 	call	0 <__alt_mem_sdram>

Disassembly of section .exceptions:

00000020 <alt_exception>:

#else /* ALT_EXCEPTION_STACK disabled */
        /* 
         * Reserve space on normal stack for registers about to be pushed.
         */
        addi  sp, sp, -76
  20:	deffed04 	addi	sp,sp,-76
         * documentation for details).
         *
         * Leave a gap in the stack frame at 4(sp) for the muldiv handler to
         * store zero into.
         */
        stw   ra,  0(sp)
  24:	dfc00015 	stw	ra,0(sp)
        stw   r1,   8(sp)
  28:	d8400215 	stw	at,8(sp)
        stw   r2,  12(sp)
  2c:	d8800315 	stw	r2,12(sp)
        stw   r3,  16(sp)
  30:	d8c00415 	stw	r3,16(sp)
        stw   r4,  20(sp)
  34:	d9000515 	stw	r4,20(sp)
        stw   r5,  24(sp)
  38:	d9400615 	stw	r5,24(sp)
        stw   r6,  28(sp)
  3c:	d9800715 	stw	r6,28(sp)
        stw   r7,  32(sp)
  40:	d9c00815 	stw	r7,32(sp)
        rdctl r5, estatus   /* Read early to avoid usage stall */
  44:	000b307a 	rdctl	r5,estatus
        stw   r8,  36(sp)
  48:	da000915 	stw	r8,36(sp)
        stw   r9,  40(sp)
  4c:	da400a15 	stw	r9,40(sp)
        stw   r10, 44(sp)
  50:	da800b15 	stw	r10,44(sp)
        stw   r11, 48(sp)
  54:	dac00c15 	stw	r11,48(sp)
        stw   r12, 52(sp)
  58:	db000d15 	stw	r12,52(sp)
        stw   r13, 56(sp)
  5c:	db400e15 	stw	r13,56(sp)
        stw   r14, 60(sp)
  60:	db800f15 	stw	r14,60(sp)
        stw   r15, 64(sp)
  64:	dbc01015 	stw	r15,64(sp)
        /*
         * ea-4 contains the address of the instruction being executed
         * when the exception occured. For interrupt exceptions, we will
         * will be re-issue the isntruction. Store it in 72(sp)
         */
        stw   r5,  68(sp)  /* estatus */
  68:	d9401115 	stw	r5,68(sp)
        addi  r15, ea, -4  /* instruction that caused exception */
  6c:	ebffff04 	addi	r15,ea,-4
        stw   r15,  72(sp)
  70:	dbc01215 	stw	r15,72(sp)
#else
        /*
         * Test to see if the exception was a software exception or caused 
         * by an external interrupt, and vector accordingly.
         */
        rdctl r4, ipending
  74:	0009313a 	rdctl	r4,ipending
        andi  r2, r5, 1
  78:	2880004c 	andi	r2,r5,1
        beq   r2, zero, .Lnot_irq
  7c:	10000326 	beq	r2,zero,8c <alt_exception+0x6c>
        beq   r4, zero, .Lnot_irq
  80:	20000226 	beq	r4,zero,8c <alt_exception+0x6c>
        /*
         * Now that all necessary registers have been preserved, call 
         * alt_irq_handler() to process the interrupts.
         */

        call alt_irq_handler
  84:	00000ec0 	call	ec <alt_irq_handler>

        .section .exceptions.irqreturn, "xa"

        br    .Lexception_exit
  88:	00000306 	br	98 <alt_exception_unknown+0x4>
         * upon completion, so we write ea (address of instruction *after*
         * the one where the exception occured) into 72(sp). The actual
         * instruction that caused the exception is written in r2, which these
         * handlers will utilize.
         */
        stw   ea,  72(sp)  /* Don't re-issue */
  8c:	df401215 	stw	ea,72(sp)
        ldw   r2, -4(ea)   /* Instruction that caused exception */
  90:	e8bfff17 	ldw	r2,-4(ea)

00000094 <alt_exception_unknown>:
#ifdef NIOS2_HAS_DEBUG_STUB
       /*
        *  Either tell the user now (if there is a debugger attached) or go into
        *  the debug monitor which will loop until a debugger is attached.
        */
        break
  94:	003da03a 	break	0
        /* 
         * Restore the saved registers, so that all general purpose registers 
         * have been restored to their state at the time the interrupt occured.
         */

        ldw   r5,  68(sp)
  98:	d9401117 	ldw	r5,68(sp)
        ldw   ea,  72(sp)  /* This becomes the PC once eret is executed */
  9c:	df401217 	ldw	ea,72(sp)
        ldw   ra,   0(sp)
  a0:	dfc00017 	ldw	ra,0(sp)

        wrctl estatus, r5
  a4:	2801707a 	wrctl	estatus,r5

        ldw   r1,   8(sp)
  a8:	d8400217 	ldw	at,8(sp)
        ldw   r2,  12(sp)
  ac:	d8800317 	ldw	r2,12(sp)
        ldw   r3,  16(sp)
  b0:	d8c00417 	ldw	r3,16(sp)
        ldw   r4,  20(sp)
  b4:	d9000517 	ldw	r4,20(sp)
        ldw   r5,  24(sp)
  b8:	d9400617 	ldw	r5,24(sp)
        ldw   r6,  28(sp)
  bc:	d9800717 	ldw	r6,28(sp)
        ldw   r7,  32(sp)
  c0:	d9c00817 	ldw	r7,32(sp)

#if defined(ALT_EXCEPTION_STACK) && defined(ALT_STACK_CHECK)
        ldw   et, %gprel(alt_exception_old_stack_limit)(gp)
#endif

        ldw   r8,  36(sp)
  c4:	da000917 	ldw	r8,36(sp)
        ldw   r9,  40(sp)
  c8:	da400a17 	ldw	r9,40(sp)
        ldw   r10, 44(sp)
  cc:	da800b17 	ldw	r10,44(sp)
        ldw   r11, 48(sp)
  d0:	dac00c17 	ldw	r11,48(sp)
        ldw   r12, 52(sp)
  d4:	db000d17 	ldw	r12,52(sp)
        ldw   r13, 56(sp)
  d8:	db400e17 	ldw	r13,56(sp)
        ldw   r14, 60(sp)
  dc:	db800f17 	ldw	r14,60(sp)
        ldw   r15, 64(sp)
  e0:	dbc01017 	ldw	r15,64(sp)
        stw   et, %gprel(alt_stack_limit_value)(gp)
        stw   zero, %gprel(alt_exception_old_stack_limit)(gp)
#endif /* ALT_STACK_CHECK */
        ldw   sp,  76(sp)
#else /* ALT_EXCEPTION_STACK disabled */
        addi  sp, sp, 76
  e4:	dec01304 	addi	sp,sp,76

        /*
         * Return to the interrupted instruction.
         */

        eret
  e8:	ef80083a 	eret

000000ec <alt_irq_handler>:
 * instruction is present if the macro ALT_CI_INTERRUPT_VECTOR defined.
 */

void alt_irq_handler (void) __attribute__ ((section (".exceptions")));
void alt_irq_handler (void)
{
  ec:	defff904 	addi	sp,sp,-28
  f0:	dfc00615 	stw	ra,24(sp)
  f4:	df000515 	stw	fp,20(sp)
  f8:	df000504 	addi	fp,sp,20
  
  /*
   * Notify the operating system that we are at interrupt level.
   */ 
  
  ALT_OS_INT_ENTER();
  fc:	0001883a 	nop
#ifndef NIOS2_EIC_PRESENT
static ALT_INLINE alt_u32 ALT_ALWAYS_INLINE alt_irq_pending (void)
{
  alt_u32 active;

  NIOS2_READ_IPENDING (active);
 100:	0005313a 	rdctl	r2,ipending
 104:	e0bffe15 	stw	r2,-8(fp)

  return active;
 108:	e0bffe17 	ldw	r2,-8(fp)
   * Consider the case where the high priority interupt is asserted during
   * the interrupt entry sequence for a lower priority interrupt to see why
   * this is the case.
   */

  active = alt_irq_pending ();
 10c:	e0bffb15 	stw	r2,-20(fp)

  do
  {
    i = 0;
 110:	e03ffd15 	stw	zero,-12(fp)
    mask = 1;
 114:	00800044 	movi	r2,1
 118:	e0bffc15 	stw	r2,-16(fp)
     * called to clear the interrupt condition.
     */

    do
    {
      if (active & mask)
 11c:	e0fffb17 	ldw	r3,-20(fp)
 120:	e0bffc17 	ldw	r2,-16(fp)
 124:	1884703a 	and	r2,r3,r2
 128:	10001726 	beq	r2,zero,188 <alt_irq_handler+0x9c>
      { 
#ifdef ALT_ENHANCED_INTERRUPT_API_PRESENT
        alt_irq[i].handler(alt_irq[i].context); 
 12c:	00c00074 	movhi	r3,1
 130:	18d84804 	addi	r3,r3,24864
 134:	e0bffd17 	ldw	r2,-12(fp)
 138:	100490fa 	slli	r2,r2,3
 13c:	1885883a 	add	r2,r3,r2
 140:	10c00017 	ldw	r3,0(r2)
 144:	01000074 	movhi	r4,1
 148:	21184804 	addi	r4,r4,24864
 14c:	e0bffd17 	ldw	r2,-12(fp)
 150:	100490fa 	slli	r2,r2,3
 154:	2085883a 	add	r2,r4,r2
 158:	10800104 	addi	r2,r2,4
 15c:	10800017 	ldw	r2,0(r2)
 160:	1009883a 	mov	r4,r2
 164:	183ee83a 	callr	r3
#else
        alt_irq[i].handler(alt_irq[i].context, i); 
#endif
        break;
 168:	0001883a 	nop
#ifndef NIOS2_EIC_PRESENT
static ALT_INLINE alt_u32 ALT_ALWAYS_INLINE alt_irq_pending (void)
{
  alt_u32 active;

  NIOS2_READ_IPENDING (active);
 16c:	0005313a 	rdctl	r2,ipending
 170:	e0bfff15 	stw	r2,-4(fp)

  return active;
 174:	e0bfff17 	ldw	r2,-4(fp)
      mask <<= 1;
      i++;

    } while (1);

    active = alt_irq_pending ();
 178:	e0bffb15 	stw	r2,-20(fp)
    
  } while (active);
 17c:	e0bffb17 	ldw	r2,-20(fp)
 180:	103fe31e 	bne	r2,zero,110 <alt_irq_handler+0x24>

  /*
   * Notify the operating system that interrupt processing is complete.
   */ 

  ALT_OS_INT_EXIT();
 184:	00000706 	br	1a4 <alt_irq_handler+0xb8>
#else
        alt_irq[i].handler(alt_irq[i].context, i); 
#endif
        break;
      }
      mask <<= 1;
 188:	e0bffc17 	ldw	r2,-16(fp)
 18c:	1085883a 	add	r2,r2,r2
 190:	e0bffc15 	stw	r2,-16(fp)
      i++;
 194:	e0bffd17 	ldw	r2,-12(fp)
 198:	10800044 	addi	r2,r2,1
 19c:	e0bffd15 	stw	r2,-12(fp)

    } while (1);
 1a0:	003fde06 	br	11c <alt_irq_handler+0x30>
  /*
   * Notify the operating system that interrupt processing is complete.
   */ 

  ALT_OS_INT_EXIT();
}
 1a4:	e037883a 	mov	sp,fp
 1a8:	dfc00117 	ldw	ra,4(sp)
 1ac:	df000017 	ldw	fp,0(sp)
 1b0:	dec00204 	addi	sp,sp,8
 1b4:	f800283a 	ret

Disassembly of section .text:

000001b8 <_start>:

    /* Assume the data cache size is always a power of two. */
#if NIOS2_DCACHE_SIZE > 0x8000
    movhi r2, %hi(NIOS2_DCACHE_SIZE)
#else
    movui r2, NIOS2_DCACHE_SIZE
     1b8:	00820014 	movui	r2,2048
#endif

0:
    initd 0(r2)
     1bc:	10000033 	initd	0(r2)
#ifdef NIOS2_ECC_PRESENT
    addi r2, r2, -4
#else
    addi r2, r2, -NIOS2_DCACHE_LINE_SIZE
     1c0:	10bff804 	addi	r2,r2,-32
#endif
    bgt r2, zero, 0b
     1c4:	00bffd16 	blt	zero,r2,1bc <_start+0x4>

    /*
     * Now that the caches are initialized, set up the stack pointer and global pointer.
     * The values provided by the linker are assumed to be correctly aligned.
     */
    movhi sp, %hi(__alt_stack_pointer)
     1c8:	06c08034 	movhi	sp,512
    ori sp, sp, %lo(__alt_stack_pointer)
     1cc:	dec00014 	ori	sp,sp,0
    movhi gp, %hi(_gp)
     1d0:	06800074 	movhi	gp,1
    ori gp, gp, %lo(_gp)
     1d4:	d6ac7d14 	ori	gp,gp,45556
 */
#ifndef ALT_SIM_OPTIMIZE
    /* Log that the BSS is about to be cleared. */
    ALT_LOG_PUTS(alt_log_msg_bss)

    movhi r2, %hi(__bss_start)
     1d8:	00800074 	movhi	r2,1
    ori r2, r2, %lo(__bss_start)
     1dc:	10982914 	ori	r2,r2,24740

    movhi r3, %hi(__bss_end)
     1e0:	00c00074 	movhi	r3,1
    ori r3, r3, %lo(__bss_end)
     1e4:	18d8ec14 	ori	r3,r3,25520

    beq r2, r3, 1f
     1e8:	10c00326 	beq	r2,r3,1f8 <_start+0x40>

0:
    stw zero, (r2)
     1ec:	10000015 	stw	zero,0(r2)
    addi r2, r2, 4
     1f0:	10800104 	addi	r2,r2,4
    bltu r2, r3, 0b
     1f4:	10fffd36 	bltu	r2,r3,1ec <_start+0x34>
     * section aren't defined until alt_load() has been called).
     */
    mov   et, zero
#endif

    call alt_load
     1f8:	000bf300 	call	bf30 <alt_load>

    /* Log that alt_main is about to be called. */
    ALT_LOG_PUTS(alt_log_msg_alt_main)

    /* Call the C entry point. It should never return. */
    call alt_main
     1fc:	000c0d00 	call	c0d0 <alt_main>

00000200 <alt_after_alt_main>:

    /* Wait in infinite loop in case alt_main does return. */
alt_after_alt_main:
    br alt_after_alt_main
     200:	003fff06 	br	200 <alt_after_alt_main>

00000204 <uart_send_byte>:
 *         Name:  uart_send_byte
 *  Description:
 * =====================================================================================
 */
int uart_send_byte(unsigned char data)
{
     204:	defffe04 	addi	sp,sp,-8
     208:	df000115 	stw	fp,4(sp)
     20c:	df000104 	addi	fp,sp,4
     210:	2005883a 	mov	r2,r4
     214:	e0bfff05 	stb	r2,-4(fp)
	UART_CO->TXDATA.BITS.TRANSMIT_DATA = data;
     218:	00a08034 	movhi	r2,33280
     21c:	10882004 	addi	r2,r2,8320
     220:	e0ffff03 	ldbu	r3,-4(fp)
     224:	10c00105 	stb	r3,4(r2)
    while(!UART_CO->STATUS.BITS.TRDY);
     228:	0001883a 	nop
     22c:	00a08034 	movhi	r2,33280
     230:	10882004 	addi	r2,r2,8320
     234:	10800217 	ldw	r2,8(r2)
     238:	1080100c 	andi	r2,r2,64
     23c:	103ffb26 	beq	r2,zero,22c <uart_send_byte+0x28>

    return 0;
     240:	0005883a 	mov	r2,zero
}
     244:	e037883a 	mov	sp,fp
     248:	df000017 	ldw	fp,0(sp)
     24c:	dec00104 	addi	sp,sp,4
     250:	f800283a 	ret

00000254 <uart_send_string>:
 *         Name:  uart_send_string
 *  Description:
 * =====================================================================================
 */
void uart_send_string(unsigned int len, unsigned char *str)
{
     254:	defffc04 	addi	sp,sp,-16
     258:	dfc00315 	stw	ra,12(sp)
     25c:	df000215 	stw	fp,8(sp)
     260:	df000204 	addi	fp,sp,8
     264:	e13ffe15 	stw	r4,-8(fp)
     268:	e17fff15 	stw	r5,-4(fp)
    while(len--)
     26c:	00000806 	br	290 <uart_send_string+0x3c>
    {
        uart_send_byte(*str++);
     270:	e0bfff17 	ldw	r2,-4(fp)
     274:	10800003 	ldbu	r2,0(r2)
     278:	10803fcc 	andi	r2,r2,255
     27c:	e0ffff17 	ldw	r3,-4(fp)
     280:	18c00044 	addi	r3,r3,1
     284:	e0ffff15 	stw	r3,-4(fp)
     288:	1009883a 	mov	r4,r2
     28c:	00002040 	call	204 <uart_send_byte>
 *  Description:
 * =====================================================================================
 */
void uart_send_string(unsigned int len, unsigned char *str)
{
    while(len--)
     290:	e0bffe17 	ldw	r2,-8(fp)
     294:	1004c03a 	cmpne	r2,r2,zero
     298:	e0fffe17 	ldw	r3,-8(fp)
     29c:	18ffffc4 	addi	r3,r3,-1
     2a0:	e0fffe15 	stw	r3,-8(fp)
     2a4:	10803fcc 	andi	r2,r2,255
     2a8:	103ff11e 	bne	r2,zero,270 <uart_send_string+0x1c>
    {
        uart_send_byte(*str++);
    }
}
     2ac:	e037883a 	mov	sp,fp
     2b0:	dfc00117 	ldw	ra,4(sp)
     2b4:	df000017 	ldw	fp,0(sp)
     2b8:	dec00204 	addi	sp,sp,8
     2bc:	f800283a 	ret

000002c0 <uart_init2>:
 *         Name:  uart_init
 *  Description:
 * =====================================================================================
 */
int uart_init2(void)
{
     2c0:	defffa04 	addi	sp,sp,-24
     2c4:	dfc00515 	stw	ra,20(sp)
     2c8:	df000415 	stw	fp,16(sp)
     2cc:	df000404 	addi	fp,sp,16

	set_baudrate(9600);	//查阅SO2传感器数据手册里面的通信协议
     2d0:	01096004 	movi	r4,9600
     2d4:	00004bc0 	call	4bc <set_baudrate>
    //unsigned char buffer[]={0xFF, 0x01, 0x78, 0x40, 0x00, 0x00, 0x00, 0x00, 0x47};
	//主动上传

	//主动读取气体浓度值
	unsigned char buffer[]={0xFF, 0x01, 0x87, 0x00, 0x00, 0x00, 0x00, 0x00, 0x78};
     2d8:	00bfffc4 	movi	r2,-1
     2dc:	e0bffd05 	stb	r2,-12(fp)
     2e0:	00800044 	movi	r2,1
     2e4:	e0bffd45 	stb	r2,-11(fp)
     2e8:	00bfe1c4 	movi	r2,-121
     2ec:	e0bffd85 	stb	r2,-10(fp)
     2f0:	e03ffdc5 	stb	zero,-9(fp)
     2f4:	e03ffe05 	stb	zero,-8(fp)
     2f8:	e03ffe45 	stb	zero,-7(fp)
     2fc:	e03ffe85 	stb	zero,-6(fp)
     300:	e03ffec5 	stb	zero,-5(fp)
     304:	00801e04 	movi	r2,120
     308:	e0bfff05 	stb	r2,-4(fp)

    uart_co.send_string(sizeof(buffer),buffer);
     30c:	00800074 	movhi	r2,1
     310:	1080f504 	addi	r2,r2,980
     314:	10803617 	ldw	r2,216(r2)
     318:	01000244 	movi	r4,9
     31c:	e17ffd04 	addi	r5,fp,-12
     320:	103ee83a 	callr	r2

    UART_CO->CONTROL.BITS.IRRDY=1;
     324:	00a08034 	movhi	r2,33280
     328:	10882004 	addi	r2,r2,8320
     32c:	10c00317 	ldw	r3,12(r2)
     330:	18c02014 	ori	r3,r3,128
     334:	10c00315 	stw	r3,12(r2)
    UART_CO->STATUS.WORD=0;
     338:	00a08034 	movhi	r2,33280
     33c:	10882004 	addi	r2,r2,8320
     340:	10000215 	stw	zero,8(r2)

    //alt_irq_register(UART_IRQ, NULL, uart_ISR);
    alt_ic_isr_register(UART_CO_IRQ_INTERRUPT_CONTROLLER_ID,UART_CO_IRQ,uart_co_ISR,NULL,0x0);
     344:	d8000015 	stw	zero,0(sp)
     348:	0009883a 	mov	r4,zero
     34c:	014000c4 	movi	r5,3
     350:	01800034 	movhi	r6,0
     354:	3180de04 	addi	r6,r6,888
     358:	000f883a 	mov	r7,zero
     35c:	000bb0c0 	call	bb0c <alt_ic_isr_register>

    return 0;
     360:	0005883a 	mov	r2,zero

}
     364:	e037883a 	mov	sp,fp
     368:	dfc00117 	ldw	ra,4(sp)
     36c:	df000017 	ldw	fp,0(sp)
     370:	dec00204 	addi	sp,sp,8
     374:	f800283a 	ret

00000378 <uart_co_ISR>:
 *         Name:  uart_ISR
 *  Description:
 * =====================================================================================
 */
static void uart_co_ISR(void)
{
     378:	defffe04 	addi	sp,sp,-8
     37c:	dfc00115 	stw	ra,4(sp)
     380:	df000015 	stw	fp,0(sp)
     384:	d839883a 	mov	fp,sp
	while(!(UART_CO->STATUS.BITS.RRDY));
     388:	0001883a 	nop
     38c:	00a08034 	movhi	r2,33280
     390:	10882004 	addi	r2,r2,8320
     394:	10800217 	ldw	r2,8(r2)
     398:	1080200c 	andi	r2,r2,128
     39c:	103ffb26 	beq	r2,zero,38c <uart_co_ISR+0x14>

	uart_co.receive_buffer[uart_co.receive_count++] = UART_CO->RXDATA.BITS.RECEIVE_DATA;
     3a0:	00800074 	movhi	r2,1
     3a4:	1080f504 	addi	r2,r2,980
     3a8:	10800217 	ldw	r2,8(r2)
     3ac:	00e08034 	movhi	r3,33280
     3b0:	18c82004 	addi	r3,r3,8320
     3b4:	19000003 	ldbu	r4,0(r3)
     3b8:	00c00074 	movhi	r3,1
     3bc:	18c0f504 	addi	r3,r3,980
     3c0:	1887883a 	add	r3,r3,r2
     3c4:	18c00304 	addi	r3,r3,12
     3c8:	19000005 	stb	r4,0(r3)
     3cc:	10c00044 	addi	r3,r2,1
     3d0:	00800074 	movhi	r2,1
     3d4:	1080f504 	addi	r2,r2,980
     3d8:	10c00215 	stw	r3,8(r2)

	if(uart_co.receive_buffer[0] != 0xFF){
     3dc:	00800074 	movhi	r2,1
     3e0:	1080f504 	addi	r2,r2,980
     3e4:	10800303 	ldbu	r2,12(r2)
     3e8:	10803fcc 	andi	r2,r2,255
     3ec:	10803fe0 	cmpeqi	r2,r2,255
     3f0:	1000061e 	bne	r2,zero,40c <uart_co_ISR+0x94>
		uart_co.receive_count = 0;
     3f4:	00800074 	movhi	r2,1
     3f8:	1080f504 	addi	r2,r2,980
     3fc:	10000215 	stw	zero,8(r2)
		uart_co.receive_buffer[0] = 0;
     400:	00800074 	movhi	r2,1
     404:	1080f504 	addi	r2,r2,980
     408:	10000305 	stb	zero,12(r2)
	}

	if(uart_co.receive_count == 13){
     40c:	00800074 	movhi	r2,1
     410:	1080f504 	addi	r2,r2,980
     414:	10800217 	ldw	r2,8(r2)
     418:	10800358 	cmpnei	r2,r2,13
     41c:	1000221e 	bne	r2,zero,4a8 <uart_co_ISR+0x130>
		if(uart_co.receive_buffer[1] == 0x87){
     420:	00800074 	movhi	r2,1
     424:	1080f504 	addi	r2,r2,980
     428:	10800343 	ldbu	r2,13(r2)
     42c:	10803fcc 	andi	r2,r2,255
     430:	108021d8 	cmpnei	r2,r2,135
     434:	1000191e 	bne	r2,zero,49c <uart_co_ISR+0x124>
			uart_co.CO_DATA = (float)(uart_co.receive_buffer[2]*256+uart_co.receive_buffer[3])/1000;
     438:	00800074 	movhi	r2,1
     43c:	1080f504 	addi	r2,r2,980
     440:	10800383 	ldbu	r2,14(r2)
     444:	10803fcc 	andi	r2,r2,255
     448:	1006923a 	slli	r3,r2,8
     44c:	00800074 	movhi	r2,1
     450:	1080f504 	addi	r2,r2,980
     454:	108003c3 	ldbu	r2,15(r2)
     458:	10803fcc 	andi	r2,r2,255
     45c:	1885883a 	add	r2,r3,r2
     460:	1009883a 	mov	r4,r2
     464:	00023240 	call	2324 <__floatsisf>
     468:	1007883a 	mov	r3,r2
     46c:	1809883a 	mov	r4,r3
     470:	01511eb4 	movhi	r5,17530
     474:	00021e80 	call	21e8 <__divsf3>
     478:	1009883a 	mov	r4,r2
     47c:	2007883a 	mov	r3,r4
     480:	00800074 	movhi	r2,1
     484:	1080f504 	addi	r2,r2,980
     488:	10c00015 	stw	r3,0(r2)
			uart_co.receive_flag=1;
     48c:	00800074 	movhi	r2,1
     490:	1080f504 	addi	r2,r2,980
     494:	00c00044 	movi	r3,1
     498:	10c00115 	stw	r3,4(r2)
		}
		uart_co.receive_count=0;
     49c:	00800074 	movhi	r2,1
     4a0:	1080f504 	addi	r2,r2,980
     4a4:	10000215 	stw	zero,8(r2)
	}

}
     4a8:	e037883a 	mov	sp,fp
     4ac:	dfc00117 	ldw	ra,4(sp)
     4b0:	df000017 	ldw	fp,0(sp)
     4b4:	dec00204 	addi	sp,sp,8
     4b8:	f800283a 	ret

000004bc <set_baudrate>:
 *         Name:  set_baudrate
 *  Description:
 * =====================================================================================
 */
int set_baudrate(unsigned int baudrate)
{
     4bc:	defffc04 	addi	sp,sp,-16
     4c0:	dfc00315 	stw	ra,12(sp)
     4c4:	df000215 	stw	fp,8(sp)
     4c8:	dc000115 	stw	r16,4(sp)
     4cc:	df000104 	addi	fp,sp,4
     4d0:	e13fff15 	stw	r4,-4(fp)
	UART_CO->DIVISOR.WORD=(unsigned int)(ALT_CPU_FREQ/baudrate+0.5);
     4d4:	04208034 	movhi	r16,33280
     4d8:	84082004 	addi	r16,r16,8320
     4dc:	01017db4 	movhi	r4,1526
     4e0:	21384004 	addi	r4,r4,-7936
     4e4:	e17fff17 	ldw	r5,-4(fp)
     4e8:	0002bc00 	call	2bc0 <__udivsi3>
     4ec:	1009883a 	mov	r4,r2
     4f0:	00029840 	call	2984 <__floatunsidf>
     4f4:	100b883a 	mov	r5,r2
     4f8:	180d883a 	mov	r6,r3
     4fc:	2809883a 	mov	r4,r5
     500:	300b883a 	mov	r5,r6
     504:	000d883a 	mov	r6,zero
     508:	01cff834 	movhi	r7,16352
     50c:	00027600 	call	2760 <__adddf3>
     510:	1009883a 	mov	r4,r2
     514:	180b883a 	mov	r5,r3
     518:	2005883a 	mov	r2,r4
     51c:	2807883a 	mov	r3,r5
     520:	1009883a 	mov	r4,r2
     524:	180b883a 	mov	r5,r3
     528:	00021640 	call	2164 <__fixunsdfsi>
     52c:	80800415 	stw	r2,16(r16)
	return 0;
     530:	0005883a 	mov	r2,zero
}
     534:	e037883a 	mov	sp,fp
     538:	dfc00217 	ldw	ra,8(sp)
     53c:	df000117 	ldw	fp,4(sp)
     540:	dc000017 	ldw	r16,0(sp)
     544:	dec00304 	addi	sp,sp,12
     548:	f800283a 	ret

0000054c <uart_send_byte>:
 *         Name:  uart_send_byte
 *  Description:
 * =====================================================================================
 */
int uart_send_byte(unsigned char data)
{
     54c:	defffe04 	addi	sp,sp,-8
     550:	df000115 	stw	fp,4(sp)
     554:	df000104 	addi	fp,sp,4
     558:	2005883a 	mov	r2,r4
     55c:	e0bfff05 	stb	r2,-4(fp)
	UART_HMI->TXDATA.BITS.TRANSMIT_DATA = data;
     560:	00a08034 	movhi	r2,33280
     564:	10880004 	addi	r2,r2,8192
     568:	e0ffff03 	ldbu	r3,-4(fp)
     56c:	10c00105 	stb	r3,4(r2)
	while (!UART_HMI->STATUS.BITS.TRDY);
     570:	0001883a 	nop
     574:	00a08034 	movhi	r2,33280
     578:	10880004 	addi	r2,r2,8192
     57c:	10800217 	ldw	r2,8(r2)
     580:	1080100c 	andi	r2,r2,64
     584:	103ffb26 	beq	r2,zero,574 <uart_send_byte+0x28>

	return 0;
     588:	0005883a 	mov	r2,zero
}
     58c:	e037883a 	mov	sp,fp
     590:	df000017 	ldw	fp,0(sp)
     594:	dec00104 	addi	sp,sp,4
     598:	f800283a 	ret

0000059c <uart_send_string>:
 *         Name:  uart_send_string
 *  Description:
 * =====================================================================================
 */
void uart_send_string(unsigned int len,unsigned  char *str)
{
     59c:	defffc04 	addi	sp,sp,-16
     5a0:	dfc00315 	stw	ra,12(sp)
     5a4:	df000215 	stw	fp,8(sp)
     5a8:	df000204 	addi	fp,sp,8
     5ac:	e13ffe15 	stw	r4,-8(fp)
     5b0:	e17fff15 	stw	r5,-4(fp)
	while (len--)
     5b4:	00000806 	br	5d8 <uart_send_string+0x3c>
	{
		uart_send_byte(*str++);
     5b8:	e0bfff17 	ldw	r2,-4(fp)
     5bc:	10800003 	ldbu	r2,0(r2)
     5c0:	10803fcc 	andi	r2,r2,255
     5c4:	e0ffff17 	ldw	r3,-4(fp)
     5c8:	18c00044 	addi	r3,r3,1
     5cc:	e0ffff15 	stw	r3,-4(fp)
     5d0:	1009883a 	mov	r4,r2
     5d4:	000054c0 	call	54c <uart_send_byte>
 *  Description:
 * =====================================================================================
 */
void uart_send_string(unsigned int len,unsigned  char *str)
{
	while (len--)
     5d8:	e0bffe17 	ldw	r2,-8(fp)
     5dc:	1004c03a 	cmpne	r2,r2,zero
     5e0:	e0fffe17 	ldw	r3,-8(fp)
     5e4:	18ffffc4 	addi	r3,r3,-1
     5e8:	e0fffe15 	stw	r3,-8(fp)
     5ec:	10803fcc 	andi	r2,r2,255
     5f0:	103ff11e 	bne	r2,zero,5b8 <uart_send_string+0x1c>
	{
		uart_send_byte(*str++);
	}
}
     5f4:	e037883a 	mov	sp,fp
     5f8:	dfc00117 	ldw	ra,4(sp)
     5fc:	df000017 	ldw	fp,0(sp)
     600:	dec00204 	addi	sp,sp,8
     604:	f800283a 	ret

00000608 <uart_init6>:
 *         Name:  uart_init
 *  Description:
 * =====================================================================================
 */
int uart_init6(void)
{
     608:	defffe04 	addi	sp,sp,-8
     60c:	dfc00115 	stw	ra,4(sp)
     610:	df000015 	stw	fp,0(sp)
     614:	d839883a 	mov	fp,sp
	set_baudrate(115200);
     618:	010000b4 	movhi	r4,2
     61c:	21308004 	addi	r4,r4,-15872
     620:	000069c0 	call	69c <set_baudrate>
	return 0;
     624:	0005883a 	mov	r2,zero
}
     628:	e037883a 	mov	sp,fp
     62c:	dfc00117 	ldw	ra,4(sp)
     630:	df000017 	ldw	fp,0(sp)
     634:	dec00204 	addi	sp,sp,8
     638:	f800283a 	ret

0000063c <datachange>:
 *         Name:  uart_hmi_change
 *  Description:
 * =====================================================================================
 */
void datachange(  char *change)
{
     63c:	defffd04 	addi	sp,sp,-12
     640:	dfc00215 	stw	ra,8(sp)
     644:	df000115 	stw	fp,4(sp)
     648:	df000104 	addi	fp,sp,4
     64c:	e13fff15 	stw	r4,-4(fp)
	uart_hmi.send_string(sizeof(change), change);
     650:	00800074 	movhi	r2,1
     654:	10812e04 	addi	r2,r2,1208
     658:	10800117 	ldw	r2,4(r2)
     65c:	01000104 	movi	r4,4
     660:	e17fff17 	ldw	r5,-4(fp)
     664:	103ee83a 	callr	r2
	UART_HMI->CONTROL.BITS.IRRDY = 1;
     668:	00a08034 	movhi	r2,33280
     66c:	10880004 	addi	r2,r2,8192
     670:	10c00317 	ldw	r3,12(r2)
     674:	18c02014 	ori	r3,r3,128
     678:	10c00315 	stw	r3,12(r2)
	UART_HMI->STATUS.WORD = 0;
     67c:	00a08034 	movhi	r2,33280
     680:	10880004 	addi	r2,r2,8192
     684:	10000215 	stw	zero,8(r2)

}
     688:	e037883a 	mov	sp,fp
     68c:	dfc00117 	ldw	ra,4(sp)
     690:	df000017 	ldw	fp,0(sp)
     694:	dec00204 	addi	sp,sp,8
     698:	f800283a 	ret

0000069c <set_baudrate>:
 *         Name:  set_baudrate
 *  Description:
 * =====================================================================================
 */
int set_baudrate(unsigned int baudrate)
{
     69c:	defffc04 	addi	sp,sp,-16
     6a0:	dfc00315 	stw	ra,12(sp)
     6a4:	df000215 	stw	fp,8(sp)
     6a8:	dc000115 	stw	r16,4(sp)
     6ac:	df000104 	addi	fp,sp,4
     6b0:	e13fff15 	stw	r4,-4(fp)
	UART_HMI->DIVISOR.WORD = (unsigned int)(ALT_CPU_FREQ / baudrate + 0.5);
     6b4:	04208034 	movhi	r16,33280
     6b8:	84080004 	addi	r16,r16,8192
     6bc:	01017db4 	movhi	r4,1526
     6c0:	21384004 	addi	r4,r4,-7936
     6c4:	e17fff17 	ldw	r5,-4(fp)
     6c8:	0002bc00 	call	2bc0 <__udivsi3>
     6cc:	1009883a 	mov	r4,r2
     6d0:	00029840 	call	2984 <__floatunsidf>
     6d4:	100b883a 	mov	r5,r2
     6d8:	180d883a 	mov	r6,r3
     6dc:	2809883a 	mov	r4,r5
     6e0:	300b883a 	mov	r5,r6
     6e4:	000d883a 	mov	r6,zero
     6e8:	01cff834 	movhi	r7,16352
     6ec:	00027600 	call	2760 <__adddf3>
     6f0:	1009883a 	mov	r4,r2
     6f4:	180b883a 	mov	r5,r3
     6f8:	2005883a 	mov	r2,r4
     6fc:	2807883a 	mov	r3,r5
     700:	1009883a 	mov	r4,r2
     704:	180b883a 	mov	r5,r3
     708:	00021640 	call	2164 <__fixunsdfsi>
     70c:	80800415 	stw	r2,16(r16)
	return 0;
     710:	0005883a 	mov	r2,zero
}
     714:	e037883a 	mov	sp,fp
     718:	dfc00217 	ldw	ra,8(sp)
     71c:	df000117 	ldw	fp,4(sp)
     720:	dc000017 	ldw	r16,0(sp)
     724:	dec00304 	addi	sp,sp,12
     728:	f800283a 	ret

0000072c <uart_send_byte>:
 *         Name:  uart_send_byte
 *  Description:
 * =====================================================================================
 */
int uart_send_byte(unsigned char data)
{
     72c:	defffe04 	addi	sp,sp,-8
     730:	df000115 	stw	fp,4(sp)
     734:	df000104 	addi	fp,sp,4
     738:	2005883a 	mov	r2,r4
     73c:	e0bfff05 	stb	r2,-4(fp)
	UART_NO2->TXDATA.BITS.TRANSMIT_DATA = data;
     740:	00a08034 	movhi	r2,33280
     744:	10882804 	addi	r2,r2,8352
     748:	e0ffff03 	ldbu	r3,-4(fp)
     74c:	10c00105 	stb	r3,4(r2)
    while(!UART_NO2->STATUS.BITS.TRDY);
     750:	0001883a 	nop
     754:	00a08034 	movhi	r2,33280
     758:	10882804 	addi	r2,r2,8352
     75c:	10800217 	ldw	r2,8(r2)
     760:	1080100c 	andi	r2,r2,64
     764:	103ffb26 	beq	r2,zero,754 <uart_send_byte+0x28>

    return 0;
     768:	0005883a 	mov	r2,zero
}
     76c:	e037883a 	mov	sp,fp
     770:	df000017 	ldw	fp,0(sp)
     774:	dec00104 	addi	sp,sp,4
     778:	f800283a 	ret

0000077c <uart_send_string>:
 *         Name:  uart_send_string
 *  Description:
 * =====================================================================================
 */
void uart_send_string(unsigned int len, unsigned char *str)
{
     77c:	defffc04 	addi	sp,sp,-16
     780:	dfc00315 	stw	ra,12(sp)
     784:	df000215 	stw	fp,8(sp)
     788:	df000204 	addi	fp,sp,8
     78c:	e13ffe15 	stw	r4,-8(fp)
     790:	e17fff15 	stw	r5,-4(fp)
    while(len--)
     794:	00000806 	br	7b8 <uart_send_string+0x3c>
    {
        uart_send_byte(*str++);
     798:	e0bfff17 	ldw	r2,-4(fp)
     79c:	10800003 	ldbu	r2,0(r2)
     7a0:	10803fcc 	andi	r2,r2,255
     7a4:	e0ffff17 	ldw	r3,-4(fp)
     7a8:	18c00044 	addi	r3,r3,1
     7ac:	e0ffff15 	stw	r3,-4(fp)
     7b0:	1009883a 	mov	r4,r2
     7b4:	000072c0 	call	72c <uart_send_byte>
 *  Description:
 * =====================================================================================
 */
void uart_send_string(unsigned int len, unsigned char *str)
{
    while(len--)
     7b8:	e0bffe17 	ldw	r2,-8(fp)
     7bc:	1004c03a 	cmpne	r2,r2,zero
     7c0:	e0fffe17 	ldw	r3,-8(fp)
     7c4:	18ffffc4 	addi	r3,r3,-1
     7c8:	e0fffe15 	stw	r3,-8(fp)
     7cc:	10803fcc 	andi	r2,r2,255
     7d0:	103ff11e 	bne	r2,zero,798 <uart_send_string+0x1c>
    {
        uart_send_byte(*str++);
    }
}
     7d4:	e037883a 	mov	sp,fp
     7d8:	dfc00117 	ldw	ra,4(sp)
     7dc:	df000017 	ldw	fp,0(sp)
     7e0:	dec00204 	addi	sp,sp,8
     7e4:	f800283a 	ret

000007e8 <uart_init3>:
 *         Name:  uart_init
 *  Description:
 * =====================================================================================
 */
int uart_init3(void)
{
     7e8:	defffa04 	addi	sp,sp,-24
     7ec:	dfc00515 	stw	ra,20(sp)
     7f0:	df000415 	stw	fp,16(sp)
     7f4:	df000404 	addi	fp,sp,16

	set_baudrate(9600);	//查阅SO2传感器数据手册里面的通信协议
     7f8:	01096004 	movi	r4,9600
     7fc:	00009e40 	call	9e4 <set_baudrate>
   // unsigned char buffer[]={0xFF, 0x01, 0x78, 0x40, 0x00, 0x00, 0x00, 0x00, 0x47};
	//主动上传

	//主动读取气体浓度值
	unsigned char buffer[]={0xFF, 0x01, 0x87, 0x00, 0x00, 0x00, 0x00, 0x00, 0x78};
     800:	00bfffc4 	movi	r2,-1
     804:	e0bffd05 	stb	r2,-12(fp)
     808:	00800044 	movi	r2,1
     80c:	e0bffd45 	stb	r2,-11(fp)
     810:	00bfe1c4 	movi	r2,-121
     814:	e0bffd85 	stb	r2,-10(fp)
     818:	e03ffdc5 	stb	zero,-9(fp)
     81c:	e03ffe05 	stb	zero,-8(fp)
     820:	e03ffe45 	stb	zero,-7(fp)
     824:	e03ffe85 	stb	zero,-6(fp)
     828:	e03ffec5 	stb	zero,-5(fp)
     82c:	00801e04 	movi	r2,120
     830:	e0bfff05 	stb	r2,-4(fp)

    uart_no2.send_string(sizeof(buffer),buffer);
     834:	00800074 	movhi	r2,1
     838:	10813304 	addi	r2,r2,1228
     83c:	10803617 	ldw	r2,216(r2)
     840:	01000244 	movi	r4,9
     844:	e17ffd04 	addi	r5,fp,-12
     848:	103ee83a 	callr	r2

    UART_NO2->CONTROL.BITS.IRRDY=1;
     84c:	00a08034 	movhi	r2,33280
     850:	10882804 	addi	r2,r2,8352
     854:	10c00317 	ldw	r3,12(r2)
     858:	18c02014 	ori	r3,r3,128
     85c:	10c00315 	stw	r3,12(r2)
    UART_NO2->STATUS.WORD=0;
     860:	00a08034 	movhi	r2,33280
     864:	10882804 	addi	r2,r2,8352
     868:	10000215 	stw	zero,8(r2)

    //alt_irq_register(UART_IRQ, NULL, uart_ISR);
    alt_ic_isr_register(UART_NO2_IRQ_INTERRUPT_CONTROLLER_ID,UART_NO2_IRQ,uart_no2_ISR,NULL,0x0);
     86c:	d8000015 	stw	zero,0(sp)
     870:	0009883a 	mov	r4,zero
     874:	01400084 	movi	r5,2
     878:	01800034 	movhi	r6,0
     87c:	31822804 	addi	r6,r6,2208
     880:	000f883a 	mov	r7,zero
     884:	000bb0c0 	call	bb0c <alt_ic_isr_register>

    return 0;
     888:	0005883a 	mov	r2,zero

}
     88c:	e037883a 	mov	sp,fp
     890:	dfc00117 	ldw	ra,4(sp)
     894:	df000017 	ldw	fp,0(sp)
     898:	dec00204 	addi	sp,sp,8
     89c:	f800283a 	ret

000008a0 <uart_no2_ISR>:
 *         Name:  uart_ISR
 *  Description:
 * =====================================================================================
 */
static void uart_no2_ISR(void)
{
     8a0:	defffe04 	addi	sp,sp,-8
     8a4:	dfc00115 	stw	ra,4(sp)
     8a8:	df000015 	stw	fp,0(sp)
     8ac:	d839883a 	mov	fp,sp
	while(!(UART_NO2->STATUS.BITS.RRDY));
     8b0:	0001883a 	nop
     8b4:	00a08034 	movhi	r2,33280
     8b8:	10882804 	addi	r2,r2,8352
     8bc:	10800217 	ldw	r2,8(r2)
     8c0:	1080200c 	andi	r2,r2,128
     8c4:	103ffb26 	beq	r2,zero,8b4 <uart_no2_ISR+0x14>

	uart_no2.receive_buffer[uart_no2.receive_count++] = UART_NO2->RXDATA.BITS.RECEIVE_DATA;
     8c8:	00800074 	movhi	r2,1
     8cc:	10813304 	addi	r2,r2,1228
     8d0:	10800217 	ldw	r2,8(r2)
     8d4:	00e08034 	movhi	r3,33280
     8d8:	18c82804 	addi	r3,r3,8352
     8dc:	19000003 	ldbu	r4,0(r3)
     8e0:	00c00074 	movhi	r3,1
     8e4:	18c13304 	addi	r3,r3,1228
     8e8:	1887883a 	add	r3,r3,r2
     8ec:	18c00304 	addi	r3,r3,12
     8f0:	19000005 	stb	r4,0(r3)
     8f4:	10c00044 	addi	r3,r2,1
     8f8:	00800074 	movhi	r2,1
     8fc:	10813304 	addi	r2,r2,1228
     900:	10c00215 	stw	r3,8(r2)

	if(uart_no2.receive_buffer[0] != 0xFF){
     904:	00800074 	movhi	r2,1
     908:	10813304 	addi	r2,r2,1228
     90c:	10800303 	ldbu	r2,12(r2)
     910:	10803fcc 	andi	r2,r2,255
     914:	10803fe0 	cmpeqi	r2,r2,255
     918:	1000061e 	bne	r2,zero,934 <uart_no2_ISR+0x94>
		uart_no2.receive_count = 0;
     91c:	00800074 	movhi	r2,1
     920:	10813304 	addi	r2,r2,1228
     924:	10000215 	stw	zero,8(r2)
		uart_no2.receive_buffer[0] = 0;
     928:	00800074 	movhi	r2,1
     92c:	10813304 	addi	r2,r2,1228
     930:	10000305 	stb	zero,12(r2)
	}

	if(uart_no2.receive_count == 13){
     934:	00800074 	movhi	r2,1
     938:	10813304 	addi	r2,r2,1228
     93c:	10800217 	ldw	r2,8(r2)
     940:	10800358 	cmpnei	r2,r2,13
     944:	1000221e 	bne	r2,zero,9d0 <uart_no2_ISR+0x130>
		if(uart_no2.receive_buffer[1] == 0x87){
     948:	00800074 	movhi	r2,1
     94c:	10813304 	addi	r2,r2,1228
     950:	10800343 	ldbu	r2,13(r2)
     954:	10803fcc 	andi	r2,r2,255
     958:	108021d8 	cmpnei	r2,r2,135
     95c:	1000191e 	bne	r2,zero,9c4 <uart_no2_ISR+0x124>
			uart_no2.NO2_DATA = (float)(uart_no2.receive_buffer[2]*256+uart_no2.receive_buffer[3])/1000;
     960:	00800074 	movhi	r2,1
     964:	10813304 	addi	r2,r2,1228
     968:	10800383 	ldbu	r2,14(r2)
     96c:	10803fcc 	andi	r2,r2,255
     970:	1006923a 	slli	r3,r2,8
     974:	00800074 	movhi	r2,1
     978:	10813304 	addi	r2,r2,1228
     97c:	108003c3 	ldbu	r2,15(r2)
     980:	10803fcc 	andi	r2,r2,255
     984:	1885883a 	add	r2,r3,r2
     988:	1009883a 	mov	r4,r2
     98c:	00023240 	call	2324 <__floatsisf>
     990:	1007883a 	mov	r3,r2
     994:	1809883a 	mov	r4,r3
     998:	01511eb4 	movhi	r5,17530
     99c:	00021e80 	call	21e8 <__divsf3>
     9a0:	1009883a 	mov	r4,r2
     9a4:	2007883a 	mov	r3,r4
     9a8:	00800074 	movhi	r2,1
     9ac:	10813304 	addi	r2,r2,1228
     9b0:	10c00015 	stw	r3,0(r2)
			uart_no2.receive_flag=1;
     9b4:	00800074 	movhi	r2,1
     9b8:	10813304 	addi	r2,r2,1228
     9bc:	00c00044 	movi	r3,1
     9c0:	10c00115 	stw	r3,4(r2)
		}
		uart_no2.receive_count=0;
     9c4:	00800074 	movhi	r2,1
     9c8:	10813304 	addi	r2,r2,1228
     9cc:	10000215 	stw	zero,8(r2)
	}

}
     9d0:	e037883a 	mov	sp,fp
     9d4:	dfc00117 	ldw	ra,4(sp)
     9d8:	df000017 	ldw	fp,0(sp)
     9dc:	dec00204 	addi	sp,sp,8
     9e0:	f800283a 	ret

000009e4 <set_baudrate>:
 *         Name:  set_baudrate
 *  Description:
 * =====================================================================================
 */
int set_baudrate(unsigned int baudrate)
{
     9e4:	defffc04 	addi	sp,sp,-16
     9e8:	dfc00315 	stw	ra,12(sp)
     9ec:	df000215 	stw	fp,8(sp)
     9f0:	dc000115 	stw	r16,4(sp)
     9f4:	df000104 	addi	fp,sp,4
     9f8:	e13fff15 	stw	r4,-4(fp)
	UART_NO2->DIVISOR.WORD=(unsigned int)(ALT_CPU_FREQ/baudrate+0.5);
     9fc:	04208034 	movhi	r16,33280
     a00:	84082804 	addi	r16,r16,8352
     a04:	01017db4 	movhi	r4,1526
     a08:	21384004 	addi	r4,r4,-7936
     a0c:	e17fff17 	ldw	r5,-4(fp)
     a10:	0002bc00 	call	2bc0 <__udivsi3>
     a14:	1009883a 	mov	r4,r2
     a18:	00029840 	call	2984 <__floatunsidf>
     a1c:	100b883a 	mov	r5,r2
     a20:	180d883a 	mov	r6,r3
     a24:	2809883a 	mov	r4,r5
     a28:	300b883a 	mov	r5,r6
     a2c:	000d883a 	mov	r6,zero
     a30:	01cff834 	movhi	r7,16352
     a34:	00027600 	call	2760 <__adddf3>
     a38:	1009883a 	mov	r4,r2
     a3c:	180b883a 	mov	r5,r3
     a40:	2005883a 	mov	r2,r4
     a44:	2807883a 	mov	r3,r5
     a48:	1009883a 	mov	r4,r2
     a4c:	180b883a 	mov	r5,r3
     a50:	00021640 	call	2164 <__fixunsdfsi>
     a54:	80800415 	stw	r2,16(r16)
	return 0;
     a58:	0005883a 	mov	r2,zero
}
     a5c:	e037883a 	mov	sp,fp
     a60:	dfc00217 	ldw	ra,8(sp)
     a64:	df000117 	ldw	fp,4(sp)
     a68:	dc000017 	ldw	r16,0(sp)
     a6c:	dec00304 	addi	sp,sp,12
     a70:	f800283a 	ret

00000a74 <uart_send_byte>:
 *         Name:  uart_send_byte
 *  Description:
 * =====================================================================================
 */
int uart_send_byte(unsigned char data)
{
     a74:	defffe04 	addi	sp,sp,-8
     a78:	df000115 	stw	fp,4(sp)
     a7c:	df000104 	addi	fp,sp,4
     a80:	2005883a 	mov	r2,r4
     a84:	e0bfff05 	stb	r2,-4(fp)
	UART_O3->TXDATA.BITS.TRANSMIT_DATA = data;
     a88:	00a08034 	movhi	r2,33280
     a8c:	10880804 	addi	r2,r2,8224
     a90:	e0ffff03 	ldbu	r3,-4(fp)
     a94:	10c00105 	stb	r3,4(r2)
    while(!UART_O3->STATUS.BITS.TRDY);
     a98:	0001883a 	nop
     a9c:	00a08034 	movhi	r2,33280
     aa0:	10880804 	addi	r2,r2,8224
     aa4:	10800217 	ldw	r2,8(r2)
     aa8:	1080100c 	andi	r2,r2,64
     aac:	103ffb26 	beq	r2,zero,a9c <uart_send_byte+0x28>

    return 0;
     ab0:	0005883a 	mov	r2,zero
}
     ab4:	e037883a 	mov	sp,fp
     ab8:	df000017 	ldw	fp,0(sp)
     abc:	dec00104 	addi	sp,sp,4
     ac0:	f800283a 	ret

00000ac4 <uart_send_string>:
 *         Name:  uart_send_string
 *  Description:
 * =====================================================================================
 */
void uart_send_string(unsigned int len, unsigned char *str)
{
     ac4:	defffc04 	addi	sp,sp,-16
     ac8:	dfc00315 	stw	ra,12(sp)
     acc:	df000215 	stw	fp,8(sp)
     ad0:	df000204 	addi	fp,sp,8
     ad4:	e13ffe15 	stw	r4,-8(fp)
     ad8:	e17fff15 	stw	r5,-4(fp)
    while(len--)
     adc:	00000806 	br	b00 <uart_send_string+0x3c>
    {
        uart_send_byte(*str++);
     ae0:	e0bfff17 	ldw	r2,-4(fp)
     ae4:	10800003 	ldbu	r2,0(r2)
     ae8:	10803fcc 	andi	r2,r2,255
     aec:	e0ffff17 	ldw	r3,-4(fp)
     af0:	18c00044 	addi	r3,r3,1
     af4:	e0ffff15 	stw	r3,-4(fp)
     af8:	1009883a 	mov	r4,r2
     afc:	0000a740 	call	a74 <uart_send_byte>
 *  Description:
 * =====================================================================================
 */
void uart_send_string(unsigned int len, unsigned char *str)
{
    while(len--)
     b00:	e0bffe17 	ldw	r2,-8(fp)
     b04:	1004c03a 	cmpne	r2,r2,zero
     b08:	e0fffe17 	ldw	r3,-8(fp)
     b0c:	18ffffc4 	addi	r3,r3,-1
     b10:	e0fffe15 	stw	r3,-8(fp)
     b14:	10803fcc 	andi	r2,r2,255
     b18:	103ff11e 	bne	r2,zero,ae0 <uart_send_string+0x1c>
    {
        uart_send_byte(*str++);
    }
}
     b1c:	e037883a 	mov	sp,fp
     b20:	dfc00117 	ldw	ra,4(sp)
     b24:	df000017 	ldw	fp,0(sp)
     b28:	dec00204 	addi	sp,sp,8
     b2c:	f800283a 	ret

00000b30 <uart_init4>:
 *         Name:  uart_init
 *  Description:
 * =====================================================================================
 */
int uart_init4(void)
{
     b30:	defffa04 	addi	sp,sp,-24
     b34:	dfc00515 	stw	ra,20(sp)
     b38:	df000415 	stw	fp,16(sp)
     b3c:	df000404 	addi	fp,sp,16

	set_baudrate(9600);	//查阅SO2传感器数据手册里面的通信协议
     b40:	01096004 	movi	r4,9600
     b44:	0000d2c0 	call	d2c <set_baudrate>
   // unsigned char buffer[]={0xFF, 0x01, 0x78, 0x40, 0x00, 0x00, 0x00, 0x00, 0x47};
	//主动上传

	//主动读取气体浓度值
	unsigned char buffer[]={0xFF, 0x01, 0x87, 0x00, 0x00, 0x00, 0x00, 0x00, 0x78};
     b48:	00bfffc4 	movi	r2,-1
     b4c:	e0bffd05 	stb	r2,-12(fp)
     b50:	00800044 	movi	r2,1
     b54:	e0bffd45 	stb	r2,-11(fp)
     b58:	00bfe1c4 	movi	r2,-121
     b5c:	e0bffd85 	stb	r2,-10(fp)
     b60:	e03ffdc5 	stb	zero,-9(fp)
     b64:	e03ffe05 	stb	zero,-8(fp)
     b68:	e03ffe45 	stb	zero,-7(fp)
     b6c:	e03ffe85 	stb	zero,-6(fp)
     b70:	e03ffec5 	stb	zero,-5(fp)
     b74:	00801e04 	movi	r2,120
     b78:	e0bfff05 	stb	r2,-4(fp)


    uart_o3.send_string(sizeof(buffer),buffer);
     b7c:	00800074 	movhi	r2,1
     b80:	10816c04 	addi	r2,r2,1456
     b84:	10803617 	ldw	r2,216(r2)
     b88:	01000244 	movi	r4,9
     b8c:	e17ffd04 	addi	r5,fp,-12
     b90:	103ee83a 	callr	r2

    UART_O3->CONTROL.BITS.IRRDY=1;
     b94:	00a08034 	movhi	r2,33280
     b98:	10880804 	addi	r2,r2,8224
     b9c:	10c00317 	ldw	r3,12(r2)
     ba0:	18c02014 	ori	r3,r3,128
     ba4:	10c00315 	stw	r3,12(r2)
    UART_O3->STATUS.WORD=0;
     ba8:	00a08034 	movhi	r2,33280
     bac:	10880804 	addi	r2,r2,8224
     bb0:	10000215 	stw	zero,8(r2)

    //alt_irq_register(UART_IRQ, NULL, uart_ISR);
    alt_ic_isr_register(UART_O3_IRQ_INTERRUPT_CONTROLLER_ID,UART_O3_IRQ,uart_o3_ISR,NULL,0x0);
     bb4:	d8000015 	stw	zero,0(sp)
     bb8:	0009883a 	mov	r4,zero
     bbc:	01400184 	movi	r5,6
     bc0:	01800034 	movhi	r6,0
     bc4:	3182fa04 	addi	r6,r6,3048
     bc8:	000f883a 	mov	r7,zero
     bcc:	000bb0c0 	call	bb0c <alt_ic_isr_register>

    return 0;
     bd0:	0005883a 	mov	r2,zero

}
     bd4:	e037883a 	mov	sp,fp
     bd8:	dfc00117 	ldw	ra,4(sp)
     bdc:	df000017 	ldw	fp,0(sp)
     be0:	dec00204 	addi	sp,sp,8
     be4:	f800283a 	ret

00000be8 <uart_o3_ISR>:
 *         Name:  uart_ISR
 *  Description:
 * =====================================================================================
 */
static void uart_o3_ISR(void)
{
     be8:	defffe04 	addi	sp,sp,-8
     bec:	dfc00115 	stw	ra,4(sp)
     bf0:	df000015 	stw	fp,0(sp)
     bf4:	d839883a 	mov	fp,sp
	while(!(UART_O3->STATUS.BITS.RRDY));
     bf8:	0001883a 	nop
     bfc:	00a08034 	movhi	r2,33280
     c00:	10880804 	addi	r2,r2,8224
     c04:	10800217 	ldw	r2,8(r2)
     c08:	1080200c 	andi	r2,r2,128
     c0c:	103ffb26 	beq	r2,zero,bfc <uart_o3_ISR+0x14>

	uart_o3.receive_buffer[uart_o3.receive_count++] = UART_O3->RXDATA.BITS.RECEIVE_DATA;
     c10:	00800074 	movhi	r2,1
     c14:	10816c04 	addi	r2,r2,1456
     c18:	10800217 	ldw	r2,8(r2)
     c1c:	00e08034 	movhi	r3,33280
     c20:	18c80804 	addi	r3,r3,8224
     c24:	19000003 	ldbu	r4,0(r3)
     c28:	00c00074 	movhi	r3,1
     c2c:	18c16c04 	addi	r3,r3,1456
     c30:	1887883a 	add	r3,r3,r2
     c34:	18c00304 	addi	r3,r3,12
     c38:	19000005 	stb	r4,0(r3)
     c3c:	10c00044 	addi	r3,r2,1
     c40:	00800074 	movhi	r2,1
     c44:	10816c04 	addi	r2,r2,1456
     c48:	10c00215 	stw	r3,8(r2)

	if(uart_o3.receive_buffer[0] != 0xFF){
     c4c:	00800074 	movhi	r2,1
     c50:	10816c04 	addi	r2,r2,1456
     c54:	10800303 	ldbu	r2,12(r2)
     c58:	10803fcc 	andi	r2,r2,255
     c5c:	10803fe0 	cmpeqi	r2,r2,255
     c60:	1000061e 	bne	r2,zero,c7c <uart_o3_ISR+0x94>
		uart_o3.receive_count = 0;
     c64:	00800074 	movhi	r2,1
     c68:	10816c04 	addi	r2,r2,1456
     c6c:	10000215 	stw	zero,8(r2)
		uart_o3.receive_buffer[0] = 0;
     c70:	00800074 	movhi	r2,1
     c74:	10816c04 	addi	r2,r2,1456
     c78:	10000305 	stb	zero,12(r2)
	}

	if(uart_o3.receive_count == 13){
     c7c:	00800074 	movhi	r2,1
     c80:	10816c04 	addi	r2,r2,1456
     c84:	10800217 	ldw	r2,8(r2)
     c88:	10800358 	cmpnei	r2,r2,13
     c8c:	1000221e 	bne	r2,zero,d18 <uart_o3_ISR+0x130>
		if(uart_o3.receive_buffer[1] == 0x87){
     c90:	00800074 	movhi	r2,1
     c94:	10816c04 	addi	r2,r2,1456
     c98:	10800343 	ldbu	r2,13(r2)
     c9c:	10803fcc 	andi	r2,r2,255
     ca0:	108021d8 	cmpnei	r2,r2,135
     ca4:	1000191e 	bne	r2,zero,d0c <uart_o3_ISR+0x124>
			uart_o3.O3_DATA = (float)(uart_o3.receive_buffer[2]*256+uart_o3.receive_buffer[3])/1000;
     ca8:	00800074 	movhi	r2,1
     cac:	10816c04 	addi	r2,r2,1456
     cb0:	10800383 	ldbu	r2,14(r2)
     cb4:	10803fcc 	andi	r2,r2,255
     cb8:	1006923a 	slli	r3,r2,8
     cbc:	00800074 	movhi	r2,1
     cc0:	10816c04 	addi	r2,r2,1456
     cc4:	108003c3 	ldbu	r2,15(r2)
     cc8:	10803fcc 	andi	r2,r2,255
     ccc:	1885883a 	add	r2,r3,r2
     cd0:	1009883a 	mov	r4,r2
     cd4:	00023240 	call	2324 <__floatsisf>
     cd8:	1007883a 	mov	r3,r2
     cdc:	1809883a 	mov	r4,r3
     ce0:	01511eb4 	movhi	r5,17530
     ce4:	00021e80 	call	21e8 <__divsf3>
     ce8:	1009883a 	mov	r4,r2
     cec:	2007883a 	mov	r3,r4
     cf0:	00800074 	movhi	r2,1
     cf4:	10816c04 	addi	r2,r2,1456
     cf8:	10c00015 	stw	r3,0(r2)
			uart_o3.receive_flag=1;
     cfc:	00800074 	movhi	r2,1
     d00:	10816c04 	addi	r2,r2,1456
     d04:	00c00044 	movi	r3,1
     d08:	10c00115 	stw	r3,4(r2)
		}
		uart_o3.receive_count=0;
     d0c:	00800074 	movhi	r2,1
     d10:	10816c04 	addi	r2,r2,1456
     d14:	10000215 	stw	zero,8(r2)
	}

}
     d18:	e037883a 	mov	sp,fp
     d1c:	dfc00117 	ldw	ra,4(sp)
     d20:	df000017 	ldw	fp,0(sp)
     d24:	dec00204 	addi	sp,sp,8
     d28:	f800283a 	ret

00000d2c <set_baudrate>:
 *         Name:  set_baudrate
 *  Description:
 * =====================================================================================
 */
int set_baudrate(unsigned int baudrate)
{
     d2c:	defffc04 	addi	sp,sp,-16
     d30:	dfc00315 	stw	ra,12(sp)
     d34:	df000215 	stw	fp,8(sp)
     d38:	dc000115 	stw	r16,4(sp)
     d3c:	df000104 	addi	fp,sp,4
     d40:	e13fff15 	stw	r4,-4(fp)
	UART_O3->DIVISOR.WORD=(unsigned int)(ALT_CPU_FREQ/baudrate+0.5);
     d44:	04208034 	movhi	r16,33280
     d48:	84080804 	addi	r16,r16,8224
     d4c:	01017db4 	movhi	r4,1526
     d50:	21384004 	addi	r4,r4,-7936
     d54:	e17fff17 	ldw	r5,-4(fp)
     d58:	0002bc00 	call	2bc0 <__udivsi3>
     d5c:	1009883a 	mov	r4,r2
     d60:	00029840 	call	2984 <__floatunsidf>
     d64:	100b883a 	mov	r5,r2
     d68:	180d883a 	mov	r6,r3
     d6c:	2809883a 	mov	r4,r5
     d70:	300b883a 	mov	r5,r6
     d74:	000d883a 	mov	r6,zero
     d78:	01cff834 	movhi	r7,16352
     d7c:	00027600 	call	2760 <__adddf3>
     d80:	1009883a 	mov	r4,r2
     d84:	180b883a 	mov	r5,r3
     d88:	2005883a 	mov	r2,r4
     d8c:	2807883a 	mov	r3,r5
     d90:	1009883a 	mov	r4,r2
     d94:	180b883a 	mov	r5,r3
     d98:	00021640 	call	2164 <__fixunsdfsi>
     d9c:	80800415 	stw	r2,16(r16)
	return 0;
     da0:	0005883a 	mov	r2,zero
}
     da4:	e037883a 	mov	sp,fp
     da8:	dfc00217 	ldw	ra,8(sp)
     dac:	df000117 	ldw	fp,4(sp)
     db0:	dc000017 	ldw	r16,0(sp)
     db4:	dec00304 	addi	sp,sp,12
     db8:	f800283a 	ret

00000dbc <uart_send_byte>:
 *         Name:  uart_send_byte
 *  Description:
 * =====================================================================================
 */
int uart_send_byte(unsigned char data)
{
     dbc:	defffe04 	addi	sp,sp,-8
     dc0:	df000115 	stw	fp,4(sp)
     dc4:	df000104 	addi	fp,sp,4
     dc8:	2005883a 	mov	r2,r4
     dcc:	e0bfff05 	stb	r2,-4(fp)
	UART_SDS011->TXDATA.BITS.TRANSMIT_DATA = data;
     dd0:	00a08034 	movhi	r2,33280
     dd4:	10881804 	addi	r2,r2,8288
     dd8:	e0ffff03 	ldbu	r3,-4(fp)
     ddc:	10c00105 	stb	r3,4(r2)
    while(!UART_SDS011->STATUS.BITS.TRDY);
     de0:	0001883a 	nop
     de4:	00a08034 	movhi	r2,33280
     de8:	10881804 	addi	r2,r2,8288
     dec:	10800217 	ldw	r2,8(r2)
     df0:	1080100c 	andi	r2,r2,64
     df4:	103ffb26 	beq	r2,zero,de4 <uart_send_byte+0x28>

    return 0;
     df8:	0005883a 	mov	r2,zero
}
     dfc:	e037883a 	mov	sp,fp
     e00:	df000017 	ldw	fp,0(sp)
     e04:	dec00104 	addi	sp,sp,4
     e08:	f800283a 	ret

00000e0c <uart_send_string>:
 *         Name:  uart_send_string
 *  Description:
 * =====================================================================================
 */
void uart_send_string(unsigned int len, unsigned char *str)
{
     e0c:	defffc04 	addi	sp,sp,-16
     e10:	dfc00315 	stw	ra,12(sp)
     e14:	df000215 	stw	fp,8(sp)
     e18:	df000204 	addi	fp,sp,8
     e1c:	e13ffe15 	stw	r4,-8(fp)
     e20:	e17fff15 	stw	r5,-4(fp)
    while(len--)
     e24:	00000806 	br	e48 <uart_send_string+0x3c>
    {
        uart_send_byte(*str++);
     e28:	e0bfff17 	ldw	r2,-4(fp)
     e2c:	10800003 	ldbu	r2,0(r2)
     e30:	10803fcc 	andi	r2,r2,255
     e34:	e0ffff17 	ldw	r3,-4(fp)
     e38:	18c00044 	addi	r3,r3,1
     e3c:	e0ffff15 	stw	r3,-4(fp)
     e40:	1009883a 	mov	r4,r2
     e44:	0000dbc0 	call	dbc <uart_send_byte>
 *  Description:
 * =====================================================================================
 */
void uart_send_string(unsigned int len, unsigned char *str)
{
    while(len--)
     e48:	e0bffe17 	ldw	r2,-8(fp)
     e4c:	1004c03a 	cmpne	r2,r2,zero
     e50:	e0fffe17 	ldw	r3,-8(fp)
     e54:	18ffffc4 	addi	r3,r3,-1
     e58:	e0fffe15 	stw	r3,-8(fp)
     e5c:	10803fcc 	andi	r2,r2,255
     e60:	103ff11e 	bne	r2,zero,e28 <uart_send_string+0x1c>
    {
        uart_send_byte(*str++);
    }
}
     e64:	e037883a 	mov	sp,fp
     e68:	dfc00117 	ldw	ra,4(sp)
     e6c:	df000017 	ldw	fp,0(sp)
     e70:	dec00204 	addi	sp,sp,8
     e74:	f800283a 	ret

00000e78 <uart_init5>:
 *         Name:  uart_init
 *  Description:
 * =====================================================================================
 */
int uart_init5(void)
{
     e78:	defffa04 	addi	sp,sp,-24
     e7c:	dfc00515 	stw	ra,20(sp)
     e80:	df000415 	stw	fp,16(sp)
     e84:	df000404 	addi	fp,sp,16

	set_baudrate(9600);	//查阅SO2传感器数据手册里面的通信协议
     e88:	01096004 	movi	r4,9600
     e8c:	00010c00 	call	10c0 <set_baudrate>
    unsigned char buffer[]={0x00, 0x00, 0x00, 0x00, 0x00, 0x00, 0x00, 0x00, 0x00,0x00,0x00};
     e90:	e03ffd05 	stb	zero,-12(fp)
     e94:	e03ffd45 	stb	zero,-11(fp)
     e98:	e03ffd85 	stb	zero,-10(fp)
     e9c:	e03ffdc5 	stb	zero,-9(fp)
     ea0:	e03ffe05 	stb	zero,-8(fp)
     ea4:	e03ffe45 	stb	zero,-7(fp)
     ea8:	e03ffe85 	stb	zero,-6(fp)
     eac:	e03ffec5 	stb	zero,-5(fp)
     eb0:	e03fff05 	stb	zero,-4(fp)
     eb4:	e03fff45 	stb	zero,-3(fp)
     eb8:	e03fff85 	stb	zero,-2(fp)
	//主动上传

	//主动读取气体浓度值
	//unsigned char buffer[]={0xFF, 0x01, 0x87, 0x00, 0x00, 0x00, 0x00, 0x00, 0x78};

    uart_sds011.send_string(sizeof(buffer),buffer);
     ebc:	00800074 	movhi	r2,1
     ec0:	1081a504 	addi	r2,r2,1684
     ec4:	10803717 	ldw	r2,220(r2)
     ec8:	010002c4 	movi	r4,11
     ecc:	e17ffd04 	addi	r5,fp,-12
     ed0:	103ee83a 	callr	r2

    UART_SDS011->CONTROL.BITS.IRRDY=1;
     ed4:	00a08034 	movhi	r2,33280
     ed8:	10881804 	addi	r2,r2,8288
     edc:	10c00317 	ldw	r3,12(r2)
     ee0:	18c02014 	ori	r3,r3,128
     ee4:	10c00315 	stw	r3,12(r2)
    UART_SDS011->STATUS.WORD=0;
     ee8:	00a08034 	movhi	r2,33280
     eec:	10881804 	addi	r2,r2,8288
     ef0:	10000215 	stw	zero,8(r2)

    //alt_irq_register(UART_IRQ, NULL, uart_ISR);
    alt_ic_isr_register(UART_SDS011_IRQ_INTERRUPT_CONTROLLER_ID,UART_SDS011_IRQ,uart_sds011_ISR,NULL,0x0);
     ef4:	d8000015 	stw	zero,0(sp)
     ef8:	0009883a 	mov	r4,zero
     efc:	01400104 	movi	r5,4
     f00:	01800034 	movhi	r6,0
     f04:	3183ca04 	addi	r6,r6,3880
     f08:	000f883a 	mov	r7,zero
     f0c:	000bb0c0 	call	bb0c <alt_ic_isr_register>

    return 0;
     f10:	0005883a 	mov	r2,zero

}
     f14:	e037883a 	mov	sp,fp
     f18:	dfc00117 	ldw	ra,4(sp)
     f1c:	df000017 	ldw	fp,0(sp)
     f20:	dec00204 	addi	sp,sp,8
     f24:	f800283a 	ret

00000f28 <uart_sds011_ISR>:
 *         Name:  uart_ISR
 *  Description:
 * =====================================================================================
 */
static void uart_sds011_ISR(void)
{
     f28:	defffe04 	addi	sp,sp,-8
     f2c:	dfc00115 	stw	ra,4(sp)
     f30:	df000015 	stw	fp,0(sp)
     f34:	d839883a 	mov	fp,sp
	while(!(UART_SDS011->STATUS.BITS.RRDY));
     f38:	0001883a 	nop
     f3c:	00a08034 	movhi	r2,33280
     f40:	10881804 	addi	r2,r2,8288
     f44:	10800217 	ldw	r2,8(r2)
     f48:	1080200c 	andi	r2,r2,128
     f4c:	103ffb26 	beq	r2,zero,f3c <uart_sds011_ISR+0x14>

	uart_sds011.receive_buffer[uart_sds011.receive_count++] = UART_SDS011->RXDATA.BITS.RECEIVE_DATA;
     f50:	00800074 	movhi	r2,1
     f54:	1081a504 	addi	r2,r2,1684
     f58:	10800317 	ldw	r2,12(r2)
     f5c:	00e08034 	movhi	r3,33280
     f60:	18c81804 	addi	r3,r3,8288
     f64:	19000003 	ldbu	r4,0(r3)
     f68:	00c00074 	movhi	r3,1
     f6c:	18c1a504 	addi	r3,r3,1684
     f70:	1887883a 	add	r3,r3,r2
     f74:	18c00404 	addi	r3,r3,16
     f78:	19000005 	stb	r4,0(r3)
     f7c:	10c00044 	addi	r3,r2,1
     f80:	00800074 	movhi	r2,1
     f84:	1081a504 	addi	r2,r2,1684
     f88:	10c00315 	stw	r3,12(r2)

	if(uart_sds011.receive_buffer[0] != 0xAA){
     f8c:	00800074 	movhi	r2,1
     f90:	1081a504 	addi	r2,r2,1684
     f94:	10800403 	ldbu	r2,16(r2)
     f98:	10803fcc 	andi	r2,r2,255
     f9c:	10802aa0 	cmpeqi	r2,r2,170
     fa0:	1000061e 	bne	r2,zero,fbc <uart_sds011_ISR+0x94>
		uart_sds011.receive_count = 0;
     fa4:	00800074 	movhi	r2,1
     fa8:	1081a504 	addi	r2,r2,1684
     fac:	10000315 	stw	zero,12(r2)
		uart_sds011.receive_buffer[0] = 0;
     fb0:	00800074 	movhi	r2,1
     fb4:	1081a504 	addi	r2,r2,1684
     fb8:	10000405 	stb	zero,16(r2)
	}

	if(uart_sds011.receive_count == 10){
     fbc:	00800074 	movhi	r2,1
     fc0:	1081a504 	addi	r2,r2,1684
     fc4:	10800317 	ldw	r2,12(r2)
     fc8:	10800298 	cmpnei	r2,r2,10
     fcc:	1000371e 	bne	r2,zero,10ac <uart_sds011_ISR+0x184>
		if(uart_sds011.receive_buffer[1] == 0xC0){
     fd0:	00800074 	movhi	r2,1
     fd4:	1081a504 	addi	r2,r2,1684
     fd8:	10800443 	ldbu	r2,17(r2)
     fdc:	10803fcc 	andi	r2,r2,255
     fe0:	10803018 	cmpnei	r2,r2,192
     fe4:	10002e1e 	bne	r2,zero,10a0 <uart_sds011_ISR+0x178>
			uart_sds011.pm25_DATA = (float)(uart_sds011.receive_buffer[2]+uart_sds011.receive_buffer[3]*256)/10;
     fe8:	00800074 	movhi	r2,1
     fec:	1081a504 	addi	r2,r2,1684
     ff0:	10800483 	ldbu	r2,18(r2)
     ff4:	10c03fcc 	andi	r3,r2,255
     ff8:	00800074 	movhi	r2,1
     ffc:	1081a504 	addi	r2,r2,1684
    1000:	108004c3 	ldbu	r2,19(r2)
    1004:	10803fcc 	andi	r2,r2,255
    1008:	1004923a 	slli	r2,r2,8
    100c:	1885883a 	add	r2,r3,r2
    1010:	1009883a 	mov	r4,r2
    1014:	00023240 	call	2324 <__floatsisf>
    1018:	1007883a 	mov	r3,r2
    101c:	1809883a 	mov	r4,r3
    1020:	01504834 	movhi	r5,16672
    1024:	00021e80 	call	21e8 <__divsf3>
    1028:	1009883a 	mov	r4,r2
    102c:	2007883a 	mov	r3,r4
    1030:	00800074 	movhi	r2,1
    1034:	1081a504 	addi	r2,r2,1684
    1038:	10c00015 	stw	r3,0(r2)
			uart_sds011.pm10_DATA = (float)(uart_sds011.receive_buffer[4]+uart_sds011.receive_buffer[5]*256)/10;
    103c:	00800074 	movhi	r2,1
    1040:	1081a504 	addi	r2,r2,1684
    1044:	10800503 	ldbu	r2,20(r2)
    1048:	10c03fcc 	andi	r3,r2,255
    104c:	00800074 	movhi	r2,1
    1050:	1081a504 	addi	r2,r2,1684
    1054:	10800543 	ldbu	r2,21(r2)
    1058:	10803fcc 	andi	r2,r2,255
    105c:	1004923a 	slli	r2,r2,8
    1060:	1885883a 	add	r2,r3,r2
    1064:	1009883a 	mov	r4,r2
    1068:	00023240 	call	2324 <__floatsisf>
    106c:	1007883a 	mov	r3,r2
    1070:	1809883a 	mov	r4,r3
    1074:	01504834 	movhi	r5,16672
    1078:	00021e80 	call	21e8 <__divsf3>
    107c:	1009883a 	mov	r4,r2
    1080:	2007883a 	mov	r3,r4
    1084:	00800074 	movhi	r2,1
    1088:	1081a504 	addi	r2,r2,1684
    108c:	10c00115 	stw	r3,4(r2)
			uart_sds011.receive_flag=1;
    1090:	00800074 	movhi	r2,1
    1094:	1081a504 	addi	r2,r2,1684
    1098:	00c00044 	movi	r3,1
    109c:	10c00215 	stw	r3,8(r2)
		}
		uart_sds011.receive_count=0;
    10a0:	00800074 	movhi	r2,1
    10a4:	1081a504 	addi	r2,r2,1684
    10a8:	10000315 	stw	zero,12(r2)
	}

}
    10ac:	e037883a 	mov	sp,fp
    10b0:	dfc00117 	ldw	ra,4(sp)
    10b4:	df000017 	ldw	fp,0(sp)
    10b8:	dec00204 	addi	sp,sp,8
    10bc:	f800283a 	ret

000010c0 <set_baudrate>:
 *         Name:  set_baudrate
 *  Description:
 * =====================================================================================
 */
int set_baudrate(unsigned int baudrate)
{
    10c0:	defffc04 	addi	sp,sp,-16
    10c4:	dfc00315 	stw	ra,12(sp)
    10c8:	df000215 	stw	fp,8(sp)
    10cc:	dc000115 	stw	r16,4(sp)
    10d0:	df000104 	addi	fp,sp,4
    10d4:	e13fff15 	stw	r4,-4(fp)
	UART_SDS011->DIVISOR.WORD=(unsigned int)(ALT_CPU_FREQ/baudrate+0.5);
    10d8:	04208034 	movhi	r16,33280
    10dc:	84081804 	addi	r16,r16,8288
    10e0:	01017db4 	movhi	r4,1526
    10e4:	21384004 	addi	r4,r4,-7936
    10e8:	e17fff17 	ldw	r5,-4(fp)
    10ec:	0002bc00 	call	2bc0 <__udivsi3>
    10f0:	1009883a 	mov	r4,r2
    10f4:	00029840 	call	2984 <__floatunsidf>
    10f8:	100b883a 	mov	r5,r2
    10fc:	180d883a 	mov	r6,r3
    1100:	2809883a 	mov	r4,r5
    1104:	300b883a 	mov	r5,r6
    1108:	000d883a 	mov	r6,zero
    110c:	01cff834 	movhi	r7,16352
    1110:	00027600 	call	2760 <__adddf3>
    1114:	1009883a 	mov	r4,r2
    1118:	180b883a 	mov	r5,r3
    111c:	2005883a 	mov	r2,r4
    1120:	2807883a 	mov	r3,r5
    1124:	1009883a 	mov	r4,r2
    1128:	180b883a 	mov	r5,r3
    112c:	00021640 	call	2164 <__fixunsdfsi>
    1130:	80800415 	stw	r2,16(r16)
	return 0;
    1134:	0005883a 	mov	r2,zero
}
    1138:	e037883a 	mov	sp,fp
    113c:	dfc00217 	ldw	ra,8(sp)
    1140:	df000117 	ldw	fp,4(sp)
    1144:	dc000017 	ldw	r16,0(sp)
    1148:	dec00304 	addi	sp,sp,12
    114c:	f800283a 	ret

00001150 <uart_send_byte>:
 *         Name:  uart_send_byte
 *  Description:
 * =====================================================================================
 */
int uart_send_byte(unsigned char data)
{
    1150:	defffe04 	addi	sp,sp,-8
    1154:	df000115 	stw	fp,4(sp)
    1158:	df000104 	addi	fp,sp,4
    115c:	2005883a 	mov	r2,r4
    1160:	e0bfff05 	stb	r2,-4(fp)
	UART_SO2->TXDATA.BITS.TRANSMIT_DATA = data;
    1164:	00a08034 	movhi	r2,33280
    1168:	10881004 	addi	r2,r2,8256
    116c:	e0ffff03 	ldbu	r3,-4(fp)
    1170:	10c00105 	stb	r3,4(r2)
    while(!UART_SO2->STATUS.BITS.TRDY);
    1174:	0001883a 	nop
    1178:	00a08034 	movhi	r2,33280
    117c:	10881004 	addi	r2,r2,8256
    1180:	10800217 	ldw	r2,8(r2)
    1184:	1080100c 	andi	r2,r2,64
    1188:	103ffb26 	beq	r2,zero,1178 <uart_send_byte+0x28>

    return 0;
    118c:	0005883a 	mov	r2,zero
}
    1190:	e037883a 	mov	sp,fp
    1194:	df000017 	ldw	fp,0(sp)
    1198:	dec00104 	addi	sp,sp,4
    119c:	f800283a 	ret

000011a0 <uart_send_string>:
 *         Name:  uart_send_string
 *  Description:
 * =====================================================================================
 */
void uart_send_string(unsigned int len, unsigned char *str)
{
    11a0:	defffc04 	addi	sp,sp,-16
    11a4:	dfc00315 	stw	ra,12(sp)
    11a8:	df000215 	stw	fp,8(sp)
    11ac:	df000204 	addi	fp,sp,8
    11b0:	e13ffe15 	stw	r4,-8(fp)
    11b4:	e17fff15 	stw	r5,-4(fp)
    while(len--)
    11b8:	00000806 	br	11dc <uart_send_string+0x3c>
    {
        uart_send_byte(*str++);
    11bc:	e0bfff17 	ldw	r2,-4(fp)
    11c0:	10800003 	ldbu	r2,0(r2)
    11c4:	10803fcc 	andi	r2,r2,255
    11c8:	e0ffff17 	ldw	r3,-4(fp)
    11cc:	18c00044 	addi	r3,r3,1
    11d0:	e0ffff15 	stw	r3,-4(fp)
    11d4:	1009883a 	mov	r4,r2
    11d8:	00011500 	call	1150 <uart_send_byte>
 *  Description:
 * =====================================================================================
 */
void uart_send_string(unsigned int len, unsigned char *str)
{
    while(len--)
    11dc:	e0bffe17 	ldw	r2,-8(fp)
    11e0:	1004c03a 	cmpne	r2,r2,zero
    11e4:	e0fffe17 	ldw	r3,-8(fp)
    11e8:	18ffffc4 	addi	r3,r3,-1
    11ec:	e0fffe15 	stw	r3,-8(fp)
    11f0:	10803fcc 	andi	r2,r2,255
    11f4:	103ff11e 	bne	r2,zero,11bc <uart_send_string+0x1c>
    {
        uart_send_byte(*str++);
    }
}
    11f8:	e037883a 	mov	sp,fp
    11fc:	dfc00117 	ldw	ra,4(sp)
    1200:	df000017 	ldw	fp,0(sp)
    1204:	dec00204 	addi	sp,sp,8
    1208:	f800283a 	ret

0000120c <uart_init>:
 *         Name:  uart_init
 *  Description:
 * =====================================================================================
 */
int uart_init(void)
{
    120c:	defffa04 	addi	sp,sp,-24
    1210:	dfc00515 	stw	ra,20(sp)
    1214:	df000415 	stw	fp,16(sp)
    1218:	df000404 	addi	fp,sp,16

	set_baudrate(9600);	//查阅SO2传感器数据手册里面的通信协议
    121c:	01096004 	movi	r4,9600
    1220:	00014b00 	call	14b0 <set_baudrate>
	//主动上传
	//主动读取气体浓度值
	//unsigned char buffer[]={0xFF, 0x01, 0x87, 0x00, 0x00, 0x00, 0x00, 0x00, 0x78};
    unsigned char buffer1[]={0xFF, 0x01, 0x87, 0x00, 0x00, 0x00, 0x00, 0x00, 0x78};
    1224:	00bfffc4 	movi	r2,-1
    1228:	e0bffd05 	stb	r2,-12(fp)
    122c:	00800044 	movi	r2,1
    1230:	e0bffd45 	stb	r2,-11(fp)
    1234:	00bfe1c4 	movi	r2,-121
    1238:	e0bffd85 	stb	r2,-10(fp)
    123c:	e03ffdc5 	stb	zero,-9(fp)
    1240:	e03ffe05 	stb	zero,-8(fp)
    1244:	e03ffe45 	stb	zero,-7(fp)
    1248:	e03ffe85 	stb	zero,-6(fp)
    124c:	e03ffec5 	stb	zero,-5(fp)
    1250:	00801e04 	movi	r2,120
    1254:	e0bfff05 	stb	r2,-4(fp)
    uart_so2.send_string(sizeof(buffer1),buffer1);
    1258:	00800074 	movhi	r2,1
    125c:	1081df04 	addi	r2,r2,1916
    1260:	10803817 	ldw	r2,224(r2)
    1264:	01000244 	movi	r4,9
    1268:	e17ffd04 	addi	r5,fp,-12
    126c:	103ee83a 	callr	r2
    UART_SO2->CONTROL.BITS.IRRDY=1;
    1270:	00a08034 	movhi	r2,33280
    1274:	10881004 	addi	r2,r2,8256
    1278:	10c00317 	ldw	r3,12(r2)
    127c:	18c02014 	ori	r3,r3,128
    1280:	10c00315 	stw	r3,12(r2)
    UART_SO2->STATUS.WORD=0;
    1284:	00a08034 	movhi	r2,33280
    1288:	10881004 	addi	r2,r2,8256
    128c:	10000215 	stw	zero,8(r2)

    //alt_irq_register(UART_IRQ, NULL, uart_ISR);
    alt_ic_isr_register(UART_SO2_IRQ_INTERRUPT_CONTROLLER_ID,UART_SO2_IRQ,uart_so2_ISR,NULL,0x0);
    1290:	d8000015 	stw	zero,0(sp)
    1294:	0009883a 	mov	r4,zero
    1298:	01400144 	movi	r5,5
    129c:	01800034 	movhi	r6,0
    12a0:	3184b104 	addi	r6,r6,4804
    12a4:	000f883a 	mov	r7,zero
    12a8:	000bb0c0 	call	bb0c <alt_ic_isr_register>

    return 0;
    12ac:	0005883a 	mov	r2,zero

}
    12b0:	e037883a 	mov	sp,fp
    12b4:	dfc00117 	ldw	ra,4(sp)
    12b8:	df000017 	ldw	fp,0(sp)
    12bc:	dec00204 	addi	sp,sp,8
    12c0:	f800283a 	ret

000012c4 <uart_so2_ISR>:
 *         Name:  uart_ISR
 *  Description:
 * =====================================================================================
 */
static void uart_so2_ISR(void)
{
    12c4:	defffe04 	addi	sp,sp,-8
    12c8:	dfc00115 	stw	ra,4(sp)
    12cc:	df000015 	stw	fp,0(sp)
    12d0:	d839883a 	mov	fp,sp
	while(!(UART_SO2->STATUS.BITS.RRDY));
    12d4:	0001883a 	nop
    12d8:	00a08034 	movhi	r2,33280
    12dc:	10881004 	addi	r2,r2,8256
    12e0:	10800217 	ldw	r2,8(r2)
    12e4:	1080200c 	andi	r2,r2,128
    12e8:	103ffb26 	beq	r2,zero,12d8 <uart_so2_ISR+0x14>

	uart_so2.receive_buffer[uart_so2.receive_count++] = UART_SO2->RXDATA.BITS.RECEIVE_DATA;
    12ec:	00800074 	movhi	r2,1
    12f0:	1081df04 	addi	r2,r2,1916
    12f4:	10800417 	ldw	r2,16(r2)
    12f8:	00e08034 	movhi	r3,33280
    12fc:	18c81004 	addi	r3,r3,8256
    1300:	19000003 	ldbu	r4,0(r3)
    1304:	00c00074 	movhi	r3,1
    1308:	18c1df04 	addi	r3,r3,1916
    130c:	1887883a 	add	r3,r3,r2
    1310:	18c00504 	addi	r3,r3,20
    1314:	19000005 	stb	r4,0(r3)
    1318:	10c00044 	addi	r3,r2,1
    131c:	00800074 	movhi	r2,1
    1320:	1081df04 	addi	r2,r2,1916
    1324:	10c00415 	stw	r3,16(r2)

	if(uart_so2.receive_buffer[0] != 0xFF){
    1328:	00800074 	movhi	r2,1
    132c:	1081df04 	addi	r2,r2,1916
    1330:	10800503 	ldbu	r2,20(r2)
    1334:	10803fcc 	andi	r2,r2,255
    1338:	10803fe0 	cmpeqi	r2,r2,255
    133c:	1000061e 	bne	r2,zero,1358 <uart_so2_ISR+0x94>
		uart_so2.receive_count = 0;
    1340:	00800074 	movhi	r2,1
    1344:	1081df04 	addi	r2,r2,1916
    1348:	10000415 	stw	zero,16(r2)
		uart_so2.receive_buffer[0] = 0;
    134c:	00800074 	movhi	r2,1
    1350:	1081df04 	addi	r2,r2,1916
    1354:	10000505 	stb	zero,20(r2)
	}

	if(uart_so2.receive_count == 13){
    1358:	00800074 	movhi	r2,1
    135c:	1081df04 	addi	r2,r2,1916
    1360:	10800417 	ldw	r2,16(r2)
    1364:	10800358 	cmpnei	r2,r2,13
    1368:	10004c1e 	bne	r2,zero,149c <uart_so2_ISR+0x1d8>
		if(uart_so2.receive_buffer[1] == 0x87){
    136c:	00800074 	movhi	r2,1
    1370:	1081df04 	addi	r2,r2,1916
    1374:	10800543 	ldbu	r2,21(r2)
    1378:	10803fcc 	andi	r2,r2,255
    137c:	108021d8 	cmpnei	r2,r2,135
    1380:	1000431e 	bne	r2,zero,1490 <uart_so2_ISR+0x1cc>
			uart_so2.SO2_DATA = (float)(uart_so2.receive_buffer[2]*256+uart_so2.receive_buffer[3])/1000;
    1384:	00800074 	movhi	r2,1
    1388:	1081df04 	addi	r2,r2,1916
    138c:	10800583 	ldbu	r2,22(r2)
    1390:	10803fcc 	andi	r2,r2,255
    1394:	1006923a 	slli	r3,r2,8
    1398:	00800074 	movhi	r2,1
    139c:	1081df04 	addi	r2,r2,1916
    13a0:	108005c3 	ldbu	r2,23(r2)
    13a4:	10803fcc 	andi	r2,r2,255
    13a8:	1885883a 	add	r2,r3,r2
    13ac:	1009883a 	mov	r4,r2
    13b0:	00023240 	call	2324 <__floatsisf>
    13b4:	1007883a 	mov	r3,r2
    13b8:	1809883a 	mov	r4,r3
    13bc:	01511eb4 	movhi	r5,17530
    13c0:	00021e80 	call	21e8 <__divsf3>
    13c4:	1009883a 	mov	r4,r2
    13c8:	2007883a 	mov	r3,r4
    13cc:	00800074 	movhi	r2,1
    13d0:	1081df04 	addi	r2,r2,1916
    13d4:	10c00015 	stw	r3,0(r2)
			uart_so2.tem_DATA = (float)((uart_so2.receive_buffer[8])<<8|uart_so2.receive_buffer[9])/100;
    13d8:	00800074 	movhi	r2,1
    13dc:	1081df04 	addi	r2,r2,1916
    13e0:	10800703 	ldbu	r2,28(r2)
    13e4:	10803fcc 	andi	r2,r2,255
    13e8:	1006923a 	slli	r3,r2,8
    13ec:	00800074 	movhi	r2,1
    13f0:	1081df04 	addi	r2,r2,1916
    13f4:	10800743 	ldbu	r2,29(r2)
    13f8:	10803fcc 	andi	r2,r2,255
    13fc:	1884b03a 	or	r2,r3,r2
    1400:	1009883a 	mov	r4,r2
    1404:	00023240 	call	2324 <__floatsisf>
    1408:	1007883a 	mov	r3,r2
    140c:	1809883a 	mov	r4,r3
    1410:	0150b234 	movhi	r5,17096
    1414:	00021e80 	call	21e8 <__divsf3>
    1418:	1009883a 	mov	r4,r2
    141c:	2007883a 	mov	r3,r4
    1420:	00800074 	movhi	r2,1
    1424:	1081df04 	addi	r2,r2,1916
    1428:	10c00115 	stw	r3,4(r2)
			uart_so2.hum_DATA = (float)((uart_so2.receive_buffer[10])<<8|uart_so2.receive_buffer[11])/100;
    142c:	00800074 	movhi	r2,1
    1430:	1081df04 	addi	r2,r2,1916
    1434:	10800783 	ldbu	r2,30(r2)
    1438:	10803fcc 	andi	r2,r2,255
    143c:	1006923a 	slli	r3,r2,8
    1440:	00800074 	movhi	r2,1
    1444:	1081df04 	addi	r2,r2,1916
    1448:	108007c3 	ldbu	r2,31(r2)
    144c:	10803fcc 	andi	r2,r2,255
    1450:	1884b03a 	or	r2,r3,r2
    1454:	1009883a 	mov	r4,r2
    1458:	00023240 	call	2324 <__floatsisf>
    145c:	1007883a 	mov	r3,r2
    1460:	1809883a 	mov	r4,r3
    1464:	0150b234 	movhi	r5,17096
    1468:	00021e80 	call	21e8 <__divsf3>
    146c:	1009883a 	mov	r4,r2
    1470:	2007883a 	mov	r3,r4
    1474:	00800074 	movhi	r2,1
    1478:	1081df04 	addi	r2,r2,1916
    147c:	10c00215 	stw	r3,8(r2)
			uart_so2.receive_flag=1;
    1480:	00800074 	movhi	r2,1
    1484:	1081df04 	addi	r2,r2,1916
    1488:	00c00044 	movi	r3,1
    148c:	10c00315 	stw	r3,12(r2)
		}
		uart_so2.receive_count=0;
    1490:	00800074 	movhi	r2,1
    1494:	1081df04 	addi	r2,r2,1916
    1498:	10000415 	stw	zero,16(r2)
	}
}
    149c:	e037883a 	mov	sp,fp
    14a0:	dfc00117 	ldw	ra,4(sp)
    14a4:	df000017 	ldw	fp,0(sp)
    14a8:	dec00204 	addi	sp,sp,8
    14ac:	f800283a 	ret

000014b0 <set_baudrate>:
 *         Name:  set_baudrate
 *  Description:
 * =====================================================================================
 */
int set_baudrate(unsigned int baudrate)
{
    14b0:	defffc04 	addi	sp,sp,-16
    14b4:	dfc00315 	stw	ra,12(sp)
    14b8:	df000215 	stw	fp,8(sp)
    14bc:	dc000115 	stw	r16,4(sp)
    14c0:	df000104 	addi	fp,sp,4
    14c4:	e13fff15 	stw	r4,-4(fp)
	UART_SO2->DIVISOR.WORD=(unsigned int)(ALT_CPU_FREQ/baudrate+0.5);
    14c8:	04208034 	movhi	r16,33280
    14cc:	84081004 	addi	r16,r16,8256
    14d0:	01017db4 	movhi	r4,1526
    14d4:	21384004 	addi	r4,r4,-7936
    14d8:	e17fff17 	ldw	r5,-4(fp)
    14dc:	0002bc00 	call	2bc0 <__udivsi3>
    14e0:	1009883a 	mov	r4,r2
    14e4:	00029840 	call	2984 <__floatunsidf>
    14e8:	100b883a 	mov	r5,r2
    14ec:	180d883a 	mov	r6,r3
    14f0:	2809883a 	mov	r4,r5
    14f4:	300b883a 	mov	r5,r6
    14f8:	000d883a 	mov	r6,zero
    14fc:	01cff834 	movhi	r7,16352
    1500:	00027600 	call	2760 <__adddf3>
    1504:	1009883a 	mov	r4,r2
    1508:	180b883a 	mov	r5,r3
    150c:	2005883a 	mov	r2,r4
    1510:	2807883a 	mov	r3,r5
    1514:	1009883a 	mov	r4,r2
    1518:	180b883a 	mov	r5,r3
    151c:	00021640 	call	2164 <__fixunsdfsi>
    1520:	80800415 	stw	r2,16(r16)
	return 0;
    1524:	0005883a 	mov	r2,zero
}
    1528:	e037883a 	mov	sp,fp
    152c:	dfc00217 	ldw	ra,8(sp)
    1530:	df000117 	ldw	fp,4(sp)
    1534:	dc000017 	ldw	r16,0(sp)
    1538:	dec00304 	addi	sp,sp,12
    153c:	f800283a 	ret

00001540 <IIC_Start>:

/**********************************************
//IIC Start
**********************************************/
void IIC_Start()
{
    1540:	defffe04 	addi	sp,sp,-8
    1544:	dfc00115 	stw	ra,4(sp)
    1548:	df000015 	stw	fp,0(sp)
    154c:	d839883a 	mov	fp,sp
   IOWR_ALTERA_AVALON_PIO_DIRECTION(SDA_BASE, OUT);
    1550:	00c00044 	movi	r3,1
    1554:	00808034 	movhi	r2,512
    1558:	10883504 	addi	r2,r2,8404
    155c:	10c00035 	stwio	r3,0(r2)
   IOWR_ALTERA_AVALON_PIO_DATA(SDA_BASE, 1);
    1560:	00c00044 	movi	r3,1
    1564:	00808034 	movhi	r2,512
    1568:	10883404 	addi	r2,r2,8400
    156c:	10c00035 	stwio	r3,0(r2)
   IOWR_ALTERA_AVALON_PIO_DATA(SCL_BASE, 1);
    1570:	00c00044 	movi	r3,1
    1574:	00808034 	movhi	r2,512
    1578:	10883004 	addi	r2,r2,8384
    157c:	10c00035 	stwio	r3,0(r2)
   usleep(10);
    1580:	01000284 	movi	r4,10
    1584:	000c3d80 	call	c3d8 <usleep>
   IOWR_ALTERA_AVALON_PIO_DATA(SDA_BASE, 0);
    1588:	0007883a 	mov	r3,zero
    158c:	00808034 	movhi	r2,512
    1590:	10883404 	addi	r2,r2,8400
    1594:	10c00035 	stwio	r3,0(r2)
   usleep(5);
    1598:	01000144 	movi	r4,5
    159c:	000c3d80 	call	c3d8 <usleep>
}
    15a0:	e037883a 	mov	sp,fp
    15a4:	dfc00117 	ldw	ra,4(sp)
    15a8:	df000017 	ldw	fp,0(sp)
    15ac:	dec00204 	addi	sp,sp,8
    15b0:	f800283a 	ret

000015b4 <IIC_Stop>:

/**********************************************
//IIC Stop
**********************************************/
void IIC_Stop()
{
    15b4:	defffe04 	addi	sp,sp,-8
    15b8:	dfc00115 	stw	ra,4(sp)
    15bc:	df000015 	stw	fp,0(sp)
    15c0:	d839883a 	mov	fp,sp
	IOWR_ALTERA_AVALON_PIO_DIRECTION(SDA_BASE, OUT);
    15c4:	00c00044 	movi	r3,1
    15c8:	00808034 	movhi	r2,512
    15cc:	10883504 	addi	r2,r2,8404
    15d0:	10c00035 	stwio	r3,0(r2)
	IOWR_ALTERA_AVALON_PIO_DATA(SDA_BASE, 0);
    15d4:	0007883a 	mov	r3,zero
    15d8:	00808034 	movhi	r2,512
    15dc:	10883404 	addi	r2,r2,8400
    15e0:	10c00035 	stwio	r3,0(r2)
	IOWR_ALTERA_AVALON_PIO_DATA(SCL_BASE, 0);
    15e4:	0007883a 	mov	r3,zero
    15e8:	00808034 	movhi	r2,512
    15ec:	10883004 	addi	r2,r2,8384
    15f0:	10c00035 	stwio	r3,0(r2)
	usleep(10);
    15f4:	01000284 	movi	r4,10
    15f8:	000c3d80 	call	c3d8 <usleep>
	IOWR_ALTERA_AVALON_PIO_DATA(SCL_BASE, 1);
    15fc:	00c00044 	movi	r3,1
    1600:	00808034 	movhi	r2,512
    1604:	10883004 	addi	r2,r2,8384
    1608:	10c00035 	stwio	r3,0(r2)
	usleep(5);
    160c:	01000144 	movi	r4,5
    1610:	000c3d80 	call	c3d8 <usleep>
	IOWR_ALTERA_AVALON_PIO_DATA(SDA_BASE, 1);
    1614:	00c00044 	movi	r3,1
    1618:	00808034 	movhi	r2,512
    161c:	10883404 	addi	r2,r2,8400
    1620:	10c00035 	stwio	r3,0(r2)
	usleep(10);
    1624:	01000284 	movi	r4,10
    1628:	000c3d80 	call	c3d8 <usleep>
}
    162c:	e037883a 	mov	sp,fp
    1630:	dfc00117 	ldw	ra,4(sp)
    1634:	df000017 	ldw	fp,0(sp)
    1638:	dec00204 	addi	sp,sp,8
    163c:	f800283a 	ret

00001640 <ack>:
 *         Name:  ack
 *  Description:  IIC应答
 * =================================================================
 */
void ack(void)
{
    1640:	defffd04 	addi	sp,sp,-12
    1644:	dfc00215 	stw	ra,8(sp)
    1648:	df000115 	stw	fp,4(sp)
    164c:	df000104 	addi	fp,sp,4
	alt_u8 tmp;

	IOWR_ALTERA_AVALON_PIO_DATA(SCL_BASE, 0);
    1650:	0007883a 	mov	r3,zero
    1654:	00808034 	movhi	r2,512
    1658:	10883004 	addi	r2,r2,8384
    165c:	10c00035 	stwio	r3,0(r2)
	IOWR_ALTERA_AVALON_PIO_DIRECTION(SDA_BASE, IN);
    1660:	0007883a 	mov	r3,zero
    1664:	00808034 	movhi	r2,512
    1668:	10883504 	addi	r2,r2,8404
    166c:	10c00035 	stwio	r3,0(r2)
	usleep(10);
    1670:	01000284 	movi	r4,10
    1674:	000c3d80 	call	c3d8 <usleep>
	IOWR_ALTERA_AVALON_PIO_DATA(SCL_BASE, 1);
    1678:	00c00044 	movi	r3,1
    167c:	00808034 	movhi	r2,512
    1680:	10883004 	addi	r2,r2,8384
    1684:	10c00035 	stwio	r3,0(r2)
	usleep(5);
    1688:	01000144 	movi	r4,5
    168c:	000c3d80 	call	c3d8 <usleep>
	tmp = IORD_ALTERA_AVALON_PIO_DATA(SDA_BASE);
    1690:	00808034 	movhi	r2,512
    1694:	10883404 	addi	r2,r2,8400
    1698:	10800037 	ldwio	r2,0(r2)
    169c:	e0bfff05 	stb	r2,-4(fp)
	usleep(5);
    16a0:	01000144 	movi	r4,5
    16a4:	000c3d80 	call	c3d8 <usleep>
	IOWR_ALTERA_AVALON_PIO_DATA(SCL_BASE, 0);
    16a8:	0007883a 	mov	r3,zero
    16ac:	00808034 	movhi	r2,512
    16b0:	10883004 	addi	r2,r2,8384
    16b4:	10c00035 	stwio	r3,0(r2)
	usleep(10);
    16b8:	01000284 	movi	r4,10
    16bc:	000c3d80 	call	c3d8 <usleep>
	while(tmp);
    16c0:	e0bfff03 	ldbu	r2,-4(fp)
    16c4:	103ffe1e 	bne	r2,zero,16c0 <ack+0x80>
}
    16c8:	e037883a 	mov	sp,fp
    16cc:	dfc00117 	ldw	ra,4(sp)
    16d0:	df000017 	ldw	fp,0(sp)
    16d4:	dec00204 	addi	sp,sp,8
    16d8:	f800283a 	ret

000016dc <Write_IIC_Byte>:

/**********************************************
// 通过I2C总线写一个字节
**********************************************/
void Write_IIC_Byte(alt_u8 IIC_Byte)
{
    16dc:	defffc04 	addi	sp,sp,-16
    16e0:	dfc00315 	stw	ra,12(sp)
    16e4:	df000215 	stw	fp,8(sp)
    16e8:	df000204 	addi	fp,sp,8
    16ec:	2005883a 	mov	r2,r4
    16f0:	e0bfff05 	stb	r2,-4(fp)
	alt_u8 i, tmp;

	IOWR_ALTERA_AVALON_PIO_DIRECTION(SDA_BASE, OUT);
    16f4:	00c00044 	movi	r3,1
    16f8:	00808034 	movhi	r2,512
    16fc:	10883504 	addi	r2,r2,8404
    1700:	10c00035 	stwio	r3,0(r2)

	for(i=0; i<8; i++){
    1704:	e03ffe05 	stb	zero,-8(fp)
    1708:	00001c06 	br	177c <Write_IIC_Byte+0xa0>
		IOWR_ALTERA_AVALON_PIO_DATA(SCL_BASE, 0);
    170c:	0007883a 	mov	r3,zero
    1710:	00808034 	movhi	r2,512
    1714:	10883004 	addi	r2,r2,8384
    1718:	10c00035 	stwio	r3,0(r2)
		usleep(5);
    171c:	01000144 	movi	r4,5
    1720:	000c3d80 	call	c3d8 <usleep>
		tmp = (IIC_Byte & 0x80) ? 1 : 0;
    1724:	e0bfff03 	ldbu	r2,-4(fp)
    1728:	10803fcc 	andi	r2,r2,255
    172c:	1004d1fa 	srli	r2,r2,7
    1730:	e0bffe45 	stb	r2,-7(fp)
		IIC_Byte <<= 1;
    1734:	e0bfff03 	ldbu	r2,-4(fp)
    1738:	1085883a 	add	r2,r2,r2
    173c:	e0bfff05 	stb	r2,-4(fp)
		IOWR_ALTERA_AVALON_PIO_DATA(SDA_BASE, tmp);
    1740:	e0fffe43 	ldbu	r3,-7(fp)
    1744:	00808034 	movhi	r2,512
    1748:	10883404 	addi	r2,r2,8400
    174c:	10c00035 	stwio	r3,0(r2)
		usleep(5);
    1750:	01000144 	movi	r4,5
    1754:	000c3d80 	call	c3d8 <usleep>
		IOWR_ALTERA_AVALON_PIO_DATA(SCL_BASE, 1);
    1758:	00c00044 	movi	r3,1
    175c:	00808034 	movhi	r2,512
    1760:	10883004 	addi	r2,r2,8384
    1764:	10c00035 	stwio	r3,0(r2)
		usleep(10);
    1768:	01000284 	movi	r4,10
    176c:	000c3d80 	call	c3d8 <usleep>
{
	alt_u8 i, tmp;

	IOWR_ALTERA_AVALON_PIO_DIRECTION(SDA_BASE, OUT);

	for(i=0; i<8; i++){
    1770:	e0bffe03 	ldbu	r2,-8(fp)
    1774:	10800044 	addi	r2,r2,1
    1778:	e0bffe05 	stb	r2,-8(fp)
    177c:	e0bffe03 	ldbu	r2,-8(fp)
    1780:	10800230 	cmpltui	r2,r2,8
    1784:	103fe11e 	bne	r2,zero,170c <Write_IIC_Byte+0x30>
		IOWR_ALTERA_AVALON_PIO_DATA(SDA_BASE, tmp);
		usleep(5);
		IOWR_ALTERA_AVALON_PIO_DATA(SCL_BASE, 1);
		usleep(10);
	}
}
    1788:	e037883a 	mov	sp,fp
    178c:	dfc00117 	ldw	ra,4(sp)
    1790:	df000017 	ldw	fp,0(sp)
    1794:	dec00204 	addi	sp,sp,8
    1798:	f800283a 	ret

0000179c <OLED_WrDat>:


/*********************OLED写数据************************************/
void OLED_WrDat(unsigned char IIC_Data)
{
    179c:	defffd04 	addi	sp,sp,-12
    17a0:	dfc00215 	stw	ra,8(sp)
    17a4:	df000115 	stw	fp,4(sp)
    17a8:	df000104 	addi	fp,sp,4
    17ac:	2005883a 	mov	r2,r4
    17b0:	e0bfff05 	stb	r2,-4(fp)
	IIC_Start();
    17b4:	00015400 	call	1540 <IIC_Start>
	Write_IIC_Byte(0x78);
    17b8:	01001e04 	movi	r4,120
    17bc:	00016dc0 	call	16dc <Write_IIC_Byte>
	ack();
    17c0:	00016400 	call	1640 <ack>
	Write_IIC_Byte(0x40);			//write data
    17c4:	01001004 	movi	r4,64
    17c8:	00016dc0 	call	16dc <Write_IIC_Byte>
	ack();
    17cc:	00016400 	call	1640 <ack>
	Write_IIC_Byte(IIC_Data);
    17d0:	e0bfff03 	ldbu	r2,-4(fp)
    17d4:	1009883a 	mov	r4,r2
    17d8:	00016dc0 	call	16dc <Write_IIC_Byte>
	ack();
    17dc:	00016400 	call	1640 <ack>
	IIC_Stop();
    17e0:	00015b40 	call	15b4 <IIC_Stop>
}
    17e4:	e037883a 	mov	sp,fp
    17e8:	dfc00117 	ldw	ra,4(sp)
    17ec:	df000017 	ldw	fp,0(sp)
    17f0:	dec00204 	addi	sp,sp,8
    17f4:	f800283a 	ret

000017f8 <OLED_WrCmd>:
/*********************OLED写操作************************************/
void OLED_WrCmd(unsigned char IIC_Command)
{
    17f8:	defffd04 	addi	sp,sp,-12
    17fc:	dfc00215 	stw	ra,8(sp)
    1800:	df000115 	stw	fp,4(sp)
    1804:	df000104 	addi	fp,sp,4
    1808:	2005883a 	mov	r2,r4
    180c:	e0bfff05 	stb	r2,-4(fp)
	IIC_Start();
    1810:	00015400 	call	1540 <IIC_Start>
	Write_IIC_Byte(0x78);            //Slave address,SA0=0
    1814:	01001e04 	movi	r4,120
    1818:	00016dc0 	call	16dc <Write_IIC_Byte>
	ack();
    181c:	00016400 	call	1640 <ack>
	Write_IIC_Byte(0x00);			//write command
    1820:	0009883a 	mov	r4,zero
    1824:	00016dc0 	call	16dc <Write_IIC_Byte>
	ack();
    1828:	00016400 	call	1640 <ack>
	Write_IIC_Byte(IIC_Command);
    182c:	e0bfff03 	ldbu	r2,-4(fp)
    1830:	1009883a 	mov	r4,r2
    1834:	00016dc0 	call	16dc <Write_IIC_Byte>
	ack();
    1838:	00016400 	call	1640 <ack>
	IIC_Stop();
    183c:	00015b40 	call	15b4 <IIC_Stop>
}
    1840:	e037883a 	mov	sp,fp
    1844:	dfc00117 	ldw	ra,4(sp)
    1848:	df000017 	ldw	fp,0(sp)
    184c:	dec00204 	addi	sp,sp,8
    1850:	f800283a 	ret

00001854 <OLED_Set_Pos>:
/*********************OLED 设置坐标************************************/
void OLED_Set_Pos(unsigned char x, unsigned char y)
{
    1854:	defffc04 	addi	sp,sp,-16
    1858:	dfc00315 	stw	ra,12(sp)
    185c:	df000215 	stw	fp,8(sp)
    1860:	df000204 	addi	fp,sp,8
    1864:	2007883a 	mov	r3,r4
    1868:	2805883a 	mov	r2,r5
    186c:	e0fffe05 	stb	r3,-8(fp)
    1870:	e0bfff05 	stb	r2,-4(fp)
	OLED_WrCmd(0xb0+y);
    1874:	e0bfff03 	ldbu	r2,-4(fp)
    1878:	10bfec04 	addi	r2,r2,-80
    187c:	10803fcc 	andi	r2,r2,255
    1880:	1009883a 	mov	r4,r2
    1884:	00017f80 	call	17f8 <OLED_WrCmd>
	OLED_WrCmd(((x&0xf0)>>4)|0x10);
    1888:	e0bffe03 	ldbu	r2,-8(fp)
    188c:	1004d13a 	srli	r2,r2,4
    1890:	10800414 	ori	r2,r2,16
    1894:	10803fcc 	andi	r2,r2,255
    1898:	1009883a 	mov	r4,r2
    189c:	00017f80 	call	17f8 <OLED_WrCmd>
	OLED_WrCmd((x&0x0f)|0x01);
    18a0:	e0bffe03 	ldbu	r2,-8(fp)
    18a4:	1080038c 	andi	r2,r2,14
    18a8:	10800054 	ori	r2,r2,1
    18ac:	10803fcc 	andi	r2,r2,255
    18b0:	1009883a 	mov	r4,r2
    18b4:	00017f80 	call	17f8 <OLED_WrCmd>
}
    18b8:	e037883a 	mov	sp,fp
    18bc:	dfc00117 	ldw	ra,4(sp)
    18c0:	df000017 	ldw	fp,0(sp)
    18c4:	dec00204 	addi	sp,sp,8
    18c8:	f800283a 	ret

000018cc <OLED_Fill>:
/*********************OLED图片设置************************************/
void OLED_Fill(unsigned char bmp_dat)
{
    18cc:	defffc04 	addi	sp,sp,-16
    18d0:	dfc00315 	stw	ra,12(sp)
    18d4:	df000215 	stw	fp,8(sp)
    18d8:	df000204 	addi	fp,sp,8
    18dc:	2005883a 	mov	r2,r4
    18e0:	e0bfff05 	stb	r2,-4(fp)
	unsigned char y,x;
	for(y=0;y<8;y++)
    18e4:	e03ffe05 	stb	zero,-8(fp)
    18e8:	00001906 	br	1950 <OLED_Fill+0x84>
	{
		OLED_WrCmd(0xb0+y);
    18ec:	e0bffe03 	ldbu	r2,-8(fp)
    18f0:	10bfec04 	addi	r2,r2,-80
    18f4:	10803fcc 	andi	r2,r2,255
    18f8:	1009883a 	mov	r4,r2
    18fc:	00017f80 	call	17f8 <OLED_WrCmd>
		OLED_WrCmd(0x01);
    1900:	01000044 	movi	r4,1
    1904:	00017f80 	call	17f8 <OLED_WrCmd>
		OLED_WrCmd(0x10);
    1908:	01000404 	movi	r4,16
    190c:	00017f80 	call	17f8 <OLED_WrCmd>
		for(x=0;x<X_WIDTH;x++)
    1910:	e03ffe45 	stb	zero,-7(fp)
    1914:	00000606 	br	1930 <OLED_Fill+0x64>
		OLED_WrDat(bmp_dat);
    1918:	e0bfff03 	ldbu	r2,-4(fp)
    191c:	1009883a 	mov	r4,r2
    1920:	000179c0 	call	179c <OLED_WrDat>
	for(y=0;y<8;y++)
	{
		OLED_WrCmd(0xb0+y);
		OLED_WrCmd(0x01);
		OLED_WrCmd(0x10);
		for(x=0;x<X_WIDTH;x++)
    1924:	e0bffe43 	ldbu	r2,-7(fp)
    1928:	10800044 	addi	r2,r2,1
    192c:	e0bffe45 	stb	r2,-7(fp)
    1930:	e0bffe43 	ldbu	r2,-7(fp)
    1934:	10803fcc 	andi	r2,r2,255
    1938:	1080201c 	xori	r2,r2,128
    193c:	10bfe004 	addi	r2,r2,-128
    1940:	103ff50e 	bge	r2,zero,1918 <OLED_Fill+0x4c>
}
/*********************OLED图片设置************************************/
void OLED_Fill(unsigned char bmp_dat)
{
	unsigned char y,x;
	for(y=0;y<8;y++)
    1944:	e0bffe03 	ldbu	r2,-8(fp)
    1948:	10800044 	addi	r2,r2,1
    194c:	e0bffe05 	stb	r2,-8(fp)
    1950:	e0bffe03 	ldbu	r2,-8(fp)
    1954:	10800230 	cmpltui	r2,r2,8
    1958:	103fe41e 	bne	r2,zero,18ec <OLED_Fill+0x20>
		OLED_WrCmd(0x01);
		OLED_WrCmd(0x10);
		for(x=0;x<X_WIDTH;x++)
		OLED_WrDat(bmp_dat);
	}
}
    195c:	e037883a 	mov	sp,fp
    1960:	dfc00117 	ldw	ra,4(sp)
    1964:	df000017 	ldw	fp,0(sp)
    1968:	dec00204 	addi	sp,sp,8
    196c:	f800283a 	ret

00001970 <OLED_CLS>:
/*********************OLED复位************************************/
void OLED_CLS(void)
{
    1970:	defffd04 	addi	sp,sp,-12
    1974:	dfc00215 	stw	ra,8(sp)
    1978:	df000115 	stw	fp,4(sp)
    197c:	df000104 	addi	fp,sp,4
	unsigned char y,x;
	for(y=0;y<8;y++)
    1980:	e03fff05 	stb	zero,-4(fp)
    1984:	00001806 	br	19e8 <OLED_CLS+0x78>
	{
		OLED_WrCmd(0xb0+y);
    1988:	e0bfff03 	ldbu	r2,-4(fp)
    198c:	10bfec04 	addi	r2,r2,-80
    1990:	10803fcc 	andi	r2,r2,255
    1994:	1009883a 	mov	r4,r2
    1998:	00017f80 	call	17f8 <OLED_WrCmd>
		OLED_WrCmd(0x01);
    199c:	01000044 	movi	r4,1
    19a0:	00017f80 	call	17f8 <OLED_WrCmd>
		OLED_WrCmd(0x10);
    19a4:	01000404 	movi	r4,16
    19a8:	00017f80 	call	17f8 <OLED_WrCmd>
		for(x=0;x<X_WIDTH;x++)
    19ac:	e03fff45 	stb	zero,-3(fp)
    19b0:	00000506 	br	19c8 <OLED_CLS+0x58>
		OLED_WrDat(0);
    19b4:	0009883a 	mov	r4,zero
    19b8:	000179c0 	call	179c <OLED_WrDat>
	for(y=0;y<8;y++)
	{
		OLED_WrCmd(0xb0+y);
		OLED_WrCmd(0x01);
		OLED_WrCmd(0x10);
		for(x=0;x<X_WIDTH;x++)
    19bc:	e0bfff43 	ldbu	r2,-3(fp)
    19c0:	10800044 	addi	r2,r2,1
    19c4:	e0bfff45 	stb	r2,-3(fp)
    19c8:	e0bfff43 	ldbu	r2,-3(fp)
    19cc:	10803fcc 	andi	r2,r2,255
    19d0:	1080201c 	xori	r2,r2,128
    19d4:	10bfe004 	addi	r2,r2,-128
    19d8:	103ff60e 	bge	r2,zero,19b4 <OLED_CLS+0x44>
}
/*********************OLED复位************************************/
void OLED_CLS(void)
{
	unsigned char y,x;
	for(y=0;y<8;y++)
    19dc:	e0bfff03 	ldbu	r2,-4(fp)
    19e0:	10800044 	addi	r2,r2,1
    19e4:	e0bfff05 	stb	r2,-4(fp)
    19e8:	e0bfff03 	ldbu	r2,-4(fp)
    19ec:	10800230 	cmpltui	r2,r2,8
    19f0:	103fe51e 	bne	r2,zero,1988 <OLED_CLS+0x18>
		OLED_WrCmd(0x01);
		OLED_WrCmd(0x10);
		for(x=0;x<X_WIDTH;x++)
		OLED_WrDat(0);
	}
}
    19f4:	e037883a 	mov	sp,fp
    19f8:	dfc00117 	ldw	ra,4(sp)
    19fc:	df000017 	ldw	fp,0(sp)
    1a00:	dec00204 	addi	sp,sp,8
    1a04:	f800283a 	ret

00001a08 <OLED_Init>:
/*********************OLED初始化************************************/
void OLED_Init(void)
{
    1a08:	defffe04 	addi	sp,sp,-8
    1a0c:	dfc00115 	stw	ra,4(sp)
    1a10:	df000015 	stw	fp,0(sp)
    1a14:	d839883a 	mov	fp,sp
//	delay(500);//初始化之前的延时很重要！
	usleep(500000);
    1a18:	01000234 	movhi	r4,8
    1a1c:	21284804 	addi	r4,r4,-24288
    1a20:	000c3d80 	call	c3d8 <usleep>
	OLED_WrCmd(0xae);//--turn off oled panel
    1a24:	01002b84 	movi	r4,174
    1a28:	00017f80 	call	17f8 <OLED_WrCmd>
	OLED_WrCmd(0x00);//---set low column address
    1a2c:	0009883a 	mov	r4,zero
    1a30:	00017f80 	call	17f8 <OLED_WrCmd>
	OLED_WrCmd(0x10);//---set high column address
    1a34:	01000404 	movi	r4,16
    1a38:	00017f80 	call	17f8 <OLED_WrCmd>
	OLED_WrCmd(0x40);//--set start line address  Set Mapping RAM Display Start Line (0x00~0x3F)
    1a3c:	01001004 	movi	r4,64
    1a40:	00017f80 	call	17f8 <OLED_WrCmd>
	OLED_WrCmd(0x81);//--set contrast control register
    1a44:	01002044 	movi	r4,129
    1a48:	00017f80 	call	17f8 <OLED_WrCmd>
	OLED_WrCmd(Brightness); // Set SEG Output Current Brightness
    1a4c:	010033c4 	movi	r4,207
    1a50:	00017f80 	call	17f8 <OLED_WrCmd>
	OLED_WrCmd(0xa1);//--Set SEG/Column Mapping     0xa0左右反置 0xa1正常
    1a54:	01002844 	movi	r4,161
    1a58:	00017f80 	call	17f8 <OLED_WrCmd>
	OLED_WrCmd(0xc8);//Set COM/Row Scan Direction   0xc0上下反置 0xc8正常
    1a5c:	01003204 	movi	r4,200
    1a60:	00017f80 	call	17f8 <OLED_WrCmd>
	OLED_WrCmd(0xa6);//--set normal display
    1a64:	01002984 	movi	r4,166
    1a68:	00017f80 	call	17f8 <OLED_WrCmd>
	OLED_WrCmd(0xa8);//--set multiplex ratio(1 to 64)
    1a6c:	01002a04 	movi	r4,168
    1a70:	00017f80 	call	17f8 <OLED_WrCmd>
	OLED_WrCmd(0x3f);//--1/64 duty
    1a74:	01000fc4 	movi	r4,63
    1a78:	00017f80 	call	17f8 <OLED_WrCmd>
	OLED_WrCmd(0xd3);//-set display offset	Shift Mapping RAM Counter (0x00~0x3F)
    1a7c:	010034c4 	movi	r4,211
    1a80:	00017f80 	call	17f8 <OLED_WrCmd>
	OLED_WrCmd(0x00);//-not offset
    1a84:	0009883a 	mov	r4,zero
    1a88:	00017f80 	call	17f8 <OLED_WrCmd>
	OLED_WrCmd(0xd5);//--set display clock divide ratio/oscillator frequency
    1a8c:	01003544 	movi	r4,213
    1a90:	00017f80 	call	17f8 <OLED_WrCmd>
	OLED_WrCmd(0x80);//--set divide ratio, Set Clock as 100 Frames/Sec
    1a94:	01002004 	movi	r4,128
    1a98:	00017f80 	call	17f8 <OLED_WrCmd>
	OLED_WrCmd(0xd9);//--set pre-charge period
    1a9c:	01003644 	movi	r4,217
    1aa0:	00017f80 	call	17f8 <OLED_WrCmd>
	OLED_WrCmd(0xf1);//Set Pre-Charge as 15 Clocks & Discharge as 1 Clock
    1aa4:	01003c44 	movi	r4,241
    1aa8:	00017f80 	call	17f8 <OLED_WrCmd>
	OLED_WrCmd(0xda);//--set com pins hardware configuration
    1aac:	01003684 	movi	r4,218
    1ab0:	00017f80 	call	17f8 <OLED_WrCmd>
	OLED_WrCmd(0x12);
    1ab4:	01000484 	movi	r4,18
    1ab8:	00017f80 	call	17f8 <OLED_WrCmd>
	OLED_WrCmd(0xdb);//--set vcomh
    1abc:	010036c4 	movi	r4,219
    1ac0:	00017f80 	call	17f8 <OLED_WrCmd>
	OLED_WrCmd(0x40);//Set VCOM Deselect Level
    1ac4:	01001004 	movi	r4,64
    1ac8:	00017f80 	call	17f8 <OLED_WrCmd>
	OLED_WrCmd(0x20);//-Set Page Addressing Mode (0x00/0x01/0x02)
    1acc:	01000804 	movi	r4,32
    1ad0:	00017f80 	call	17f8 <OLED_WrCmd>
	OLED_WrCmd(0x02);//
    1ad4:	01000084 	movi	r4,2
    1ad8:	00017f80 	call	17f8 <OLED_WrCmd>
	OLED_WrCmd(0x8d);//--set Charge Pump enable/disable
    1adc:	01002344 	movi	r4,141
    1ae0:	00017f80 	call	17f8 <OLED_WrCmd>
	OLED_WrCmd(0x14);//--set(0x10) disable
    1ae4:	01000504 	movi	r4,20
    1ae8:	00017f80 	call	17f8 <OLED_WrCmd>
	OLED_WrCmd(0xa4);// Disable Entire Display On (0xa4/0xa5)
    1aec:	01002904 	movi	r4,164
    1af0:	00017f80 	call	17f8 <OLED_WrCmd>
	OLED_WrCmd(0xa6);// Disable Inverse Display On (0xa6/a7)
    1af4:	01002984 	movi	r4,166
    1af8:	00017f80 	call	17f8 <OLED_WrCmd>
	OLED_WrCmd(0xaf);//--turn on oled panel
    1afc:	01002bc4 	movi	r4,175
    1b00:	00017f80 	call	17f8 <OLED_WrCmd>
	OLED_Fill(0x00); //初始清屏
    1b04:	0009883a 	mov	r4,zero
    1b08:	00018cc0 	call	18cc <OLED_Fill>
	OLED_Set_Pos(0,0);
    1b0c:	0009883a 	mov	r4,zero
    1b10:	000b883a 	mov	r5,zero
    1b14:	00018540 	call	1854 <OLED_Set_Pos>

}
    1b18:	e037883a 	mov	sp,fp
    1b1c:	dfc00117 	ldw	ra,4(sp)
    1b20:	df000017 	ldw	fp,0(sp)
    1b24:	dec00204 	addi	sp,sp,8
    1b28:	f800283a 	ret

00001b2c <OLED_P8x16Str>:
	}
}*/
/*******************功能描述：显示8*16一组标准ASCII字符串	 显示的坐标（x,y），y为页范围0～7****************/

void OLED_P8x16Str(unsigned char x, unsigned char y,unsigned char ch[])
{
    1b2c:	defffa04 	addi	sp,sp,-24
    1b30:	dfc00515 	stw	ra,20(sp)
    1b34:	df000415 	stw	fp,16(sp)
    1b38:	df000404 	addi	fp,sp,16
    1b3c:	2007883a 	mov	r3,r4
    1b40:	2805883a 	mov	r2,r5
    1b44:	e1bfff15 	stw	r6,-4(fp)
    1b48:	e0fffd05 	stb	r3,-12(fp)
    1b4c:	e0bffe05 	stb	r2,-8(fp)
	unsigned char c=0,i=0,j=0;
    1b50:	e03ffc85 	stb	zero,-14(fp)
    1b54:	e03ffc05 	stb	zero,-16(fp)
    1b58:	e03ffc45 	stb	zero,-15(fp)
	while (ch[j]!='\0')
    1b5c:	00004606 	br	1c78 <OLED_P8x16Str+0x14c>
	{
		c =ch[j]-32;
    1b60:	e0bffc43 	ldbu	r2,-15(fp)
    1b64:	e0ffff17 	ldw	r3,-4(fp)
    1b68:	1885883a 	add	r2,r3,r2
    1b6c:	10800003 	ldbu	r2,0(r2)
    1b70:	10bff804 	addi	r2,r2,-32
    1b74:	e0bffc85 	stb	r2,-14(fp)
		if(x>120){x=0;y++;}
    1b78:	e0bffd03 	ldbu	r2,-12(fp)
    1b7c:	10801e70 	cmpltui	r2,r2,121
    1b80:	1000041e 	bne	r2,zero,1b94 <OLED_P8x16Str+0x68>
    1b84:	e03ffd05 	stb	zero,-12(fp)
    1b88:	e0bffe03 	ldbu	r2,-8(fp)
    1b8c:	10800044 	addi	r2,r2,1
    1b90:	e0bffe05 	stb	r2,-8(fp)
		OLED_Set_Pos(x,y);
    1b94:	e0fffd03 	ldbu	r3,-12(fp)
    1b98:	e0bffe03 	ldbu	r2,-8(fp)
    1b9c:	1809883a 	mov	r4,r3
    1ba0:	100b883a 	mov	r5,r2
    1ba4:	00018540 	call	1854 <OLED_Set_Pos>
		for(i=0;i<8;i++)
    1ba8:	e03ffc05 	stb	zero,-16(fp)
    1bac:	00000e06 	br	1be8 <OLED_P8x16Str+0xbc>
		OLED_WrDat(F8X16[c*16+i]);
    1bb0:	e0bffc83 	ldbu	r2,-14(fp)
    1bb4:	1006913a 	slli	r3,r2,4
    1bb8:	e0bffc03 	ldbu	r2,-16(fp)
    1bbc:	1885883a 	add	r2,r3,r2
    1bc0:	00c00074 	movhi	r3,1
    1bc4:	18c32204 	addi	r3,r3,3208
    1bc8:	1885883a 	add	r2,r3,r2
    1bcc:	10800003 	ldbu	r2,0(r2)
    1bd0:	10803fcc 	andi	r2,r2,255
    1bd4:	1009883a 	mov	r4,r2
    1bd8:	000179c0 	call	179c <OLED_WrDat>
	while (ch[j]!='\0')
	{
		c =ch[j]-32;
		if(x>120){x=0;y++;}
		OLED_Set_Pos(x,y);
		for(i=0;i<8;i++)
    1bdc:	e0bffc03 	ldbu	r2,-16(fp)
    1be0:	10800044 	addi	r2,r2,1
    1be4:	e0bffc05 	stb	r2,-16(fp)
    1be8:	e0bffc03 	ldbu	r2,-16(fp)
    1bec:	10800230 	cmpltui	r2,r2,8
    1bf0:	103fef1e 	bne	r2,zero,1bb0 <OLED_P8x16Str+0x84>
		OLED_WrDat(F8X16[c*16+i]);
		OLED_Set_Pos(x,y+1);
    1bf4:	e0fffd03 	ldbu	r3,-12(fp)
    1bf8:	e0bffe03 	ldbu	r2,-8(fp)
    1bfc:	10800044 	addi	r2,r2,1
    1c00:	10803fcc 	andi	r2,r2,255
    1c04:	1809883a 	mov	r4,r3
    1c08:	100b883a 	mov	r5,r2
    1c0c:	00018540 	call	1854 <OLED_Set_Pos>
		for(i=0;i<8;i++)
    1c10:	e03ffc05 	stb	zero,-16(fp)
    1c14:	00000f06 	br	1c54 <OLED_P8x16Str+0x128>
		OLED_WrDat(F8X16[c*16+i+8]);
    1c18:	e0bffc83 	ldbu	r2,-14(fp)
    1c1c:	1006913a 	slli	r3,r2,4
    1c20:	e0bffc03 	ldbu	r2,-16(fp)
    1c24:	1885883a 	add	r2,r3,r2
    1c28:	10800204 	addi	r2,r2,8
    1c2c:	00c00074 	movhi	r3,1
    1c30:	18c32204 	addi	r3,r3,3208
    1c34:	1885883a 	add	r2,r3,r2
    1c38:	10800003 	ldbu	r2,0(r2)
    1c3c:	10803fcc 	andi	r2,r2,255
    1c40:	1009883a 	mov	r4,r2
    1c44:	000179c0 	call	179c <OLED_WrDat>
		if(x>120){x=0;y++;}
		OLED_Set_Pos(x,y);
		for(i=0;i<8;i++)
		OLED_WrDat(F8X16[c*16+i]);
		OLED_Set_Pos(x,y+1);
		for(i=0;i<8;i++)
    1c48:	e0bffc03 	ldbu	r2,-16(fp)
    1c4c:	10800044 	addi	r2,r2,1
    1c50:	e0bffc05 	stb	r2,-16(fp)
    1c54:	e0bffc03 	ldbu	r2,-16(fp)
    1c58:	10800230 	cmpltui	r2,r2,8
    1c5c:	103fee1e 	bne	r2,zero,1c18 <OLED_P8x16Str+0xec>
		OLED_WrDat(F8X16[c*16+i+8]);
		x+=8;
    1c60:	e0bffd03 	ldbu	r2,-12(fp)
    1c64:	10800204 	addi	r2,r2,8
    1c68:	e0bffd05 	stb	r2,-12(fp)
		j++;
    1c6c:	e0bffc43 	ldbu	r2,-15(fp)
    1c70:	10800044 	addi	r2,r2,1
    1c74:	e0bffc45 	stb	r2,-15(fp)
/*******************功能描述：显示8*16一组标准ASCII字符串	 显示的坐标（x,y），y为页范围0～7****************/

void OLED_P8x16Str(unsigned char x, unsigned char y,unsigned char ch[])
{
	unsigned char c=0,i=0,j=0;
	while (ch[j]!='\0')
    1c78:	e0bffc43 	ldbu	r2,-15(fp)
    1c7c:	e0ffff17 	ldw	r3,-4(fp)
    1c80:	1885883a 	add	r2,r3,r2
    1c84:	10800003 	ldbu	r2,0(r2)
    1c88:	10803fcc 	andi	r2,r2,255
    1c8c:	103fb41e 	bne	r2,zero,1b60 <OLED_P8x16Str+0x34>
		for(i=0;i<8;i++)
		OLED_WrDat(F8X16[c*16+i+8]);
		x+=8;
		j++;
	}
}
    1c90:	e037883a 	mov	sp,fp
    1c94:	dfc00117 	ldw	ra,4(sp)
    1c98:	df000017 	ldw	fp,0(sp)
    1c9c:	dec00204 	addi	sp,sp,8
    1ca0:	f800283a 	ret

00001ca4 <OLED_P16x16Ch>:
/*****************功能描述：显示16*16点阵  显示的坐标（x,y），y为页范围0～7****************************/

void OLED_P16x16Ch(unsigned char x, unsigned char y, unsigned char N)
{
    1ca4:	defff904 	addi	sp,sp,-28
    1ca8:	dfc00615 	stw	ra,24(sp)
    1cac:	df000515 	stw	fp,20(sp)
    1cb0:	df000504 	addi	fp,sp,20
    1cb4:	2807883a 	mov	r3,r5
    1cb8:	3005883a 	mov	r2,r6
    1cbc:	e13ffd05 	stb	r4,-12(fp)
    1cc0:	e0fffe05 	stb	r3,-8(fp)
    1cc4:	e0bfff05 	stb	r2,-4(fp)
	unsigned char wm=0;
    1cc8:	e03ffb05 	stb	zero,-20(fp)
	unsigned int adder=32*N;
    1ccc:	e0bfff03 	ldbu	r2,-4(fp)
    1cd0:	1004917a 	slli	r2,r2,5
    1cd4:	e0bffc15 	stw	r2,-16(fp)
	OLED_Set_Pos(x , y);
    1cd8:	e0fffd03 	ldbu	r3,-12(fp)
    1cdc:	e0bffe03 	ldbu	r2,-8(fp)
    1ce0:	1809883a 	mov	r4,r3
    1ce4:	100b883a 	mov	r5,r2
    1ce8:	00018540 	call	1854 <OLED_Set_Pos>
	for(wm = 0;wm < 16;wm++)
    1cec:	e03ffb05 	stb	zero,-20(fp)
    1cf0:	00000e06 	br	1d2c <OLED_P16x16Ch+0x88>
	{
		OLED_WrDat(F16x16[adder]);
    1cf4:	00c00074 	movhi	r3,1
    1cf8:	18c21a04 	addi	r3,r3,2152
    1cfc:	e0bffc17 	ldw	r2,-16(fp)
    1d00:	1885883a 	add	r2,r3,r2
    1d04:	10800003 	ldbu	r2,0(r2)
    1d08:	10803fcc 	andi	r2,r2,255
    1d0c:	1009883a 	mov	r4,r2
    1d10:	000179c0 	call	179c <OLED_WrDat>
		adder += 1;
    1d14:	e0bffc17 	ldw	r2,-16(fp)
    1d18:	10800044 	addi	r2,r2,1
    1d1c:	e0bffc15 	stw	r2,-16(fp)
void OLED_P16x16Ch(unsigned char x, unsigned char y, unsigned char N)
{
	unsigned char wm=0;
	unsigned int adder=32*N;
	OLED_Set_Pos(x , y);
	for(wm = 0;wm < 16;wm++)
    1d20:	e0bffb03 	ldbu	r2,-20(fp)
    1d24:	10800044 	addi	r2,r2,1
    1d28:	e0bffb05 	stb	r2,-20(fp)
    1d2c:	e0bffb03 	ldbu	r2,-20(fp)
    1d30:	10800430 	cmpltui	r2,r2,16
    1d34:	103fef1e 	bne	r2,zero,1cf4 <OLED_P16x16Ch+0x50>
	{
		OLED_WrDat(F16x16[adder]);
		adder += 1;
	}
	OLED_Set_Pos(x,y + 1);
    1d38:	e0fffd03 	ldbu	r3,-12(fp)
    1d3c:	e0bffe03 	ldbu	r2,-8(fp)
    1d40:	10800044 	addi	r2,r2,1
    1d44:	10803fcc 	andi	r2,r2,255
    1d48:	1809883a 	mov	r4,r3
    1d4c:	100b883a 	mov	r5,r2
    1d50:	00018540 	call	1854 <OLED_Set_Pos>
	for(wm = 0;wm < 16;wm++)
    1d54:	e03ffb05 	stb	zero,-20(fp)
    1d58:	00000e06 	br	1d94 <OLED_P16x16Ch+0xf0>
	{
		OLED_WrDat(F16x16[adder]);
    1d5c:	00c00074 	movhi	r3,1
    1d60:	18c21a04 	addi	r3,r3,2152
    1d64:	e0bffc17 	ldw	r2,-16(fp)
    1d68:	1885883a 	add	r2,r3,r2
    1d6c:	10800003 	ldbu	r2,0(r2)
    1d70:	10803fcc 	andi	r2,r2,255
    1d74:	1009883a 	mov	r4,r2
    1d78:	000179c0 	call	179c <OLED_WrDat>
		adder += 1;
    1d7c:	e0bffc17 	ldw	r2,-16(fp)
    1d80:	10800044 	addi	r2,r2,1
    1d84:	e0bffc15 	stw	r2,-16(fp)
	{
		OLED_WrDat(F16x16[adder]);
		adder += 1;
	}
	OLED_Set_Pos(x,y + 1);
	for(wm = 0;wm < 16;wm++)
    1d88:	e0bffb03 	ldbu	r2,-20(fp)
    1d8c:	10800044 	addi	r2,r2,1
    1d90:	e0bffb05 	stb	r2,-20(fp)
    1d94:	e0bffb03 	ldbu	r2,-20(fp)
    1d98:	10800430 	cmpltui	r2,r2,16
    1d9c:	103fef1e 	bne	r2,zero,1d5c <OLED_P16x16Ch+0xb8>
	{
		OLED_WrDat(F16x16[adder]);
		adder += 1;
	}
}
    1da0:	e037883a 	mov	sp,fp
    1da4:	dfc00117 	ldw	ra,4(sp)
    1da8:	df000017 	ldw	fp,0(sp)
    1dac:	dec00204 	addi	sp,sp,8
    1db0:	f800283a 	ret

00001db4 <UART_Send_END>:
 * =====================================================================================
 */
    unsigned  char temp[32];
    unsigned char endoff=0xFF;
    void UART_Send_END(void)
    {
    1db4:	defffe04 	addi	sp,sp,-8
    1db8:	dfc00115 	stw	ra,4(sp)
    1dbc:	df000015 	stw	fp,0(sp)
    1dc0:	d839883a 	mov	fp,sp
    	uart_hmi.send_byte(endoff);
    1dc4:	00800074 	movhi	r2,1
    1dc8:	10812e04 	addi	r2,r2,1208
    1dcc:	10c00017 	ldw	r3,0(r2)
    1dd0:	d0a00003 	ldbu	r2,-32768(gp)
    1dd4:	10803fcc 	andi	r2,r2,255
    1dd8:	1009883a 	mov	r4,r2
    1ddc:	183ee83a 	callr	r3
    	uart_hmi.send_byte(endoff);
    1de0:	00800074 	movhi	r2,1
    1de4:	10812e04 	addi	r2,r2,1208
    1de8:	10c00017 	ldw	r3,0(r2)
    1dec:	d0a00003 	ldbu	r2,-32768(gp)
    1df0:	10803fcc 	andi	r2,r2,255
    1df4:	1009883a 	mov	r4,r2
    1df8:	183ee83a 	callr	r3
    	uart_hmi.send_byte(endoff);
    1dfc:	00800074 	movhi	r2,1
    1e00:	10812e04 	addi	r2,r2,1208
    1e04:	10c00017 	ldw	r3,0(r2)
    1e08:	d0a00003 	ldbu	r2,-32768(gp)
    1e0c:	10803fcc 	andi	r2,r2,255
    1e10:	1009883a 	mov	r4,r2
    1e14:	183ee83a 	callr	r3
    }
    1e18:	e037883a 	mov	sp,fp
    1e1c:	dfc00117 	ldw	ra,4(sp)
    1e20:	df000017 	ldw	fp,0(sp)
    1e24:	dec00204 	addi	sp,sp,8
    1e28:	f800283a 	ret

00001e2c <main>:
int main(void)
{
    1e2c:	defffe04 	addi	sp,sp,-8
    1e30:	dfc00115 	stw	ra,4(sp)
    1e34:	df000015 	stw	fp,0(sp)
    1e38:	d839883a 	mov	fp,sp
	uart_hmi.init6();
    1e3c:	00800074 	movhi	r2,1
    1e40:	10812e04 	addi	r2,r2,1208
    1e44:	10800217 	ldw	r2,8(r2)
    1e48:	103ee83a 	callr	r2
	while(1)
	{
		    uart_so2.init();
    1e4c:	00800074 	movhi	r2,1
    1e50:	1081df04 	addi	r2,r2,1916
    1e54:	10803917 	ldw	r2,228(r2)
    1e58:	103ee83a 	callr	r2
			uart_co.init2();
    1e5c:	00800074 	movhi	r2,1
    1e60:	1080f504 	addi	r2,r2,980
    1e64:	10803717 	ldw	r2,220(r2)
    1e68:	103ee83a 	callr	r2
			uart_no2.init3();
    1e6c:	00800074 	movhi	r2,1
    1e70:	10813304 	addi	r2,r2,1228
    1e74:	10803717 	ldw	r2,220(r2)
    1e78:	103ee83a 	callr	r2
		    uart_o3.init4();
    1e7c:	00800074 	movhi	r2,1
    1e80:	10816c04 	addi	r2,r2,1456
    1e84:	10803717 	ldw	r2,220(r2)
    1e88:	103ee83a 	callr	r2
			uart_sds011.init5();
    1e8c:	00800074 	movhi	r2,1
    1e90:	1081a504 	addi	r2,r2,1684
    1e94:	10803817 	ldw	r2,224(r2)
    1e98:	103ee83a 	callr	r2
            UART_Send_END();
    1e9c:	0001db40 	call	1db4 <UART_Send_END>
			sprintf(temp,"TEM.txt=\"%.2f\"\xFF\xFF\xFF", uart_so2.tem_DATA);
    1ea0:	00c00074 	movhi	r3,1
    1ea4:	18c1df04 	addi	r3,r3,1916
    1ea8:	18800117 	ldw	r2,4(r3)
    1eac:	1009883a 	mov	r4,r2
    1eb0:	00023c80 	call	23c8 <__extendsfdf2>
    1eb4:	100f883a 	mov	r7,r2
    1eb8:	1811883a 	mov	r8,r3
    1ebc:	01000074 	movhi	r4,1
    1ec0:	21184004 	addi	r4,r4,24832
    1ec4:	01400074 	movhi	r5,1
    1ec8:	297fe504 	addi	r5,r5,-108
    1ecc:	380d883a 	mov	r6,r7
    1ed0:	400f883a 	mov	r7,r8
    1ed4:	00033480 	call	3348 <sprintf>
            uart_hmi.send_string(sizeof(temp),temp);
    1ed8:	00800074 	movhi	r2,1
    1edc:	10812e04 	addi	r2,r2,1208
    1ee0:	10800117 	ldw	r2,4(r2)
    1ee4:	01000804 	movi	r4,32
    1ee8:	01400074 	movhi	r5,1
    1eec:	29584004 	addi	r5,r5,24832
    1ef0:	103ee83a 	callr	r2
            UART_Send_END();
    1ef4:	0001db40 	call	1db4 <UART_Send_END>

			sprintf(temp,"HUM.txt=\"%.2f \"\xFF\xFF\xFF", uart_so2.hum_DATA);
    1ef8:	00c00074 	movhi	r3,1
    1efc:	18c1df04 	addi	r3,r3,1916
    1f00:	18800217 	ldw	r2,8(r3)
    1f04:	1009883a 	mov	r4,r2
    1f08:	00023c80 	call	23c8 <__extendsfdf2>
    1f0c:	100f883a 	mov	r7,r2
    1f10:	1811883a 	mov	r8,r3
    1f14:	01000074 	movhi	r4,1
    1f18:	21184004 	addi	r4,r4,24832
    1f1c:	01400074 	movhi	r5,1
    1f20:	297fea04 	addi	r5,r5,-88
    1f24:	380d883a 	mov	r6,r7
    1f28:	400f883a 	mov	r7,r8
    1f2c:	00033480 	call	3348 <sprintf>
            uart_hmi.send_string(sizeof(temp),temp);
    1f30:	00800074 	movhi	r2,1
    1f34:	10812e04 	addi	r2,r2,1208
    1f38:	10800117 	ldw	r2,4(r2)
    1f3c:	01000804 	movi	r4,32
    1f40:	01400074 	movhi	r5,1
    1f44:	29584004 	addi	r5,r5,24832
    1f48:	103ee83a 	callr	r2
            UART_Send_END();
    1f4c:	0001db40 	call	1db4 <UART_Send_END>

			sprintf(temp,"SO2.txt=\"%.3f\"\xFF\xFF\xFF", uart_so2.SO2_DATA);
    1f50:	00c00074 	movhi	r3,1
    1f54:	18c1df04 	addi	r3,r3,1916
    1f58:	18800017 	ldw	r2,0(r3)
    1f5c:	1009883a 	mov	r4,r2
    1f60:	00023c80 	call	23c8 <__extendsfdf2>
    1f64:	100f883a 	mov	r7,r2
    1f68:	1811883a 	mov	r8,r3
    1f6c:	01000074 	movhi	r4,1
    1f70:	21184004 	addi	r4,r4,24832
    1f74:	01400074 	movhi	r5,1
    1f78:	297fef04 	addi	r5,r5,-68
    1f7c:	380d883a 	mov	r6,r7
    1f80:	400f883a 	mov	r7,r8
    1f84:	00033480 	call	3348 <sprintf>
            uart_hmi.send_string(sizeof(temp),temp);
    1f88:	00800074 	movhi	r2,1
    1f8c:	10812e04 	addi	r2,r2,1208
    1f90:	10800117 	ldw	r2,4(r2)
    1f94:	01000804 	movi	r4,32
    1f98:	01400074 	movhi	r5,1
    1f9c:	29584004 	addi	r5,r5,24832
    1fa0:	103ee83a 	callr	r2
            UART_Send_END();
    1fa4:	0001db40 	call	1db4 <UART_Send_END>

			sprintf(temp,"CO.txt=\"%.3f\"\xFF\xFF\xFF", uart_co.CO_DATA);
    1fa8:	00c00074 	movhi	r3,1
    1fac:	18c0f504 	addi	r3,r3,980
    1fb0:	18800017 	ldw	r2,0(r3)
    1fb4:	1009883a 	mov	r4,r2
    1fb8:	00023c80 	call	23c8 <__extendsfdf2>
    1fbc:	100f883a 	mov	r7,r2
    1fc0:	1811883a 	mov	r8,r3
    1fc4:	01000074 	movhi	r4,1
    1fc8:	21184004 	addi	r4,r4,24832
    1fcc:	01400074 	movhi	r5,1
    1fd0:	297ff404 	addi	r5,r5,-48
    1fd4:	380d883a 	mov	r6,r7
    1fd8:	400f883a 	mov	r7,r8
    1fdc:	00033480 	call	3348 <sprintf>
            uart_hmi.send_string(sizeof(temp),temp);
    1fe0:	00800074 	movhi	r2,1
    1fe4:	10812e04 	addi	r2,r2,1208
    1fe8:	10800117 	ldw	r2,4(r2)
    1fec:	01000804 	movi	r4,32
    1ff0:	01400074 	movhi	r5,1
    1ff4:	29584004 	addi	r5,r5,24832
    1ff8:	103ee83a 	callr	r2
            UART_Send_END();
    1ffc:	0001db40 	call	1db4 <UART_Send_END>

		    sprintf(temp,"NO2.txt=\"%.3f\"\xFF\xFF\xFF", uart_no2.NO2_DATA);
    2000:	00c00074 	movhi	r3,1
    2004:	18c13304 	addi	r3,r3,1228
    2008:	18800017 	ldw	r2,0(r3)
    200c:	1009883a 	mov	r4,r2
    2010:	00023c80 	call	23c8 <__extendsfdf2>
    2014:	100f883a 	mov	r7,r2
    2018:	1811883a 	mov	r8,r3
    201c:	01000074 	movhi	r4,1
    2020:	21184004 	addi	r4,r4,24832
    2024:	01400074 	movhi	r5,1
    2028:	297ff904 	addi	r5,r5,-28
    202c:	380d883a 	mov	r6,r7
    2030:	400f883a 	mov	r7,r8
    2034:	00033480 	call	3348 <sprintf>
            uart_hmi.send_string(sizeof(temp),temp);
    2038:	00800074 	movhi	r2,1
    203c:	10812e04 	addi	r2,r2,1208
    2040:	10800117 	ldw	r2,4(r2)
    2044:	01000804 	movi	r4,32
    2048:	01400074 	movhi	r5,1
    204c:	29584004 	addi	r5,r5,24832
    2050:	103ee83a 	callr	r2
            UART_Send_END();
    2054:	0001db40 	call	1db4 <UART_Send_END>

			sprintf(temp,"O3.txt=\"%.3f\"\xFF\xFF\xFF", uart_o3.O3_DATA);
    2058:	00c00074 	movhi	r3,1
    205c:	18c16c04 	addi	r3,r3,1456
    2060:	18800017 	ldw	r2,0(r3)
    2064:	1009883a 	mov	r4,r2
    2068:	00023c80 	call	23c8 <__extendsfdf2>
    206c:	100f883a 	mov	r7,r2
    2070:	1811883a 	mov	r8,r3
    2074:	01000074 	movhi	r4,1
    2078:	21184004 	addi	r4,r4,24832
    207c:	01400074 	movhi	r5,1
    2080:	297ffe04 	addi	r5,r5,-8
    2084:	380d883a 	mov	r6,r7
    2088:	400f883a 	mov	r7,r8
    208c:	00033480 	call	3348 <sprintf>
            uart_hmi.send_string(sizeof(temp),temp);
    2090:	00800074 	movhi	r2,1
    2094:	10812e04 	addi	r2,r2,1208
    2098:	10800117 	ldw	r2,4(r2)
    209c:	01000804 	movi	r4,32
    20a0:	01400074 	movhi	r5,1
    20a4:	29584004 	addi	r5,r5,24832
    20a8:	103ee83a 	callr	r2
            UART_Send_END();
    20ac:	0001db40 	call	1db4 <UART_Send_END>

			sprintf(temp,"PM25.txt=\"%.2f\"\xFF\xFF\xFF", uart_sds011.pm25_DATA);
    20b0:	00c00074 	movhi	r3,1
    20b4:	18c1a504 	addi	r3,r3,1684
    20b8:	18800017 	ldw	r2,0(r3)
    20bc:	1009883a 	mov	r4,r2
    20c0:	00023c80 	call	23c8 <__extendsfdf2>
    20c4:	100f883a 	mov	r7,r2
    20c8:	1811883a 	mov	r8,r3
    20cc:	01000074 	movhi	r4,1
    20d0:	21184004 	addi	r4,r4,24832
    20d4:	01400074 	movhi	r5,1
    20d8:	29400304 	addi	r5,r5,12
    20dc:	380d883a 	mov	r6,r7
    20e0:	400f883a 	mov	r7,r8
    20e4:	00033480 	call	3348 <sprintf>
            uart_hmi.send_string(sizeof(temp),temp);
    20e8:	00800074 	movhi	r2,1
    20ec:	10812e04 	addi	r2,r2,1208
    20f0:	10800117 	ldw	r2,4(r2)
    20f4:	01000804 	movi	r4,32
    20f8:	01400074 	movhi	r5,1
    20fc:	29584004 	addi	r5,r5,24832
    2100:	103ee83a 	callr	r2
            UART_Send_END();
    2104:	0001db40 	call	1db4 <UART_Send_END>

			sprintf(temp,"PM10.txt=\"%.2f\"\xFF\xFF\xFF", uart_sds011.pm10_DATA);
    2108:	00c00074 	movhi	r3,1
    210c:	18c1a504 	addi	r3,r3,1684
    2110:	18800117 	ldw	r2,4(r3)
    2114:	1009883a 	mov	r4,r2
    2118:	00023c80 	call	23c8 <__extendsfdf2>
    211c:	100f883a 	mov	r7,r2
    2120:	1811883a 	mov	r8,r3
    2124:	01000074 	movhi	r4,1
    2128:	21184004 	addi	r4,r4,24832
    212c:	01400074 	movhi	r5,1
    2130:	29400804 	addi	r5,r5,32
    2134:	380d883a 	mov	r6,r7
    2138:	400f883a 	mov	r7,r8
    213c:	00033480 	call	3348 <sprintf>
            uart_hmi.send_string(sizeof(temp),temp);
    2140:	00800074 	movhi	r2,1
    2144:	10812e04 	addi	r2,r2,1208
    2148:	10800117 	ldw	r2,4(r2)
    214c:	01000804 	movi	r4,32
    2150:	01400074 	movhi	r5,1
    2154:	29584004 	addi	r5,r5,24832
    2158:	103ee83a 	callr	r2
            UART_Send_END();
    215c:	0001db40 	call	1db4 <UART_Send_END>

	}
    2160:	003f3a06 	br	1e4c <main+0x20>

00002164 <__fixunsdfsi>:
    2164:	defffd04 	addi	sp,sp,-12
    2168:	000d883a 	mov	r6,zero
    216c:	01d07834 	movhi	r7,16864
    2170:	dc400115 	stw	r17,4(sp)
    2174:	dc000015 	stw	r16,0(sp)
    2178:	dfc00215 	stw	ra,8(sp)
    217c:	2023883a 	mov	r17,r4
    2180:	2821883a 	mov	r16,r5
    2184:	00028140 	call	2814 <__gedf2>
    2188:	1000080e 	bge	r2,zero,21ac <__fixunsdfsi+0x48>
    218c:	8809883a 	mov	r4,r17
    2190:	800b883a 	mov	r5,r16
    2194:	00028780 	call	2878 <__fixdfsi>
    2198:	dfc00217 	ldw	ra,8(sp)
    219c:	dc400117 	ldw	r17,4(sp)
    21a0:	dc000017 	ldw	r16,0(sp)
    21a4:	dec00304 	addi	sp,sp,12
    21a8:	f800283a 	ret
    21ac:	000d883a 	mov	r6,zero
    21b0:	01d07834 	movhi	r7,16864
    21b4:	8809883a 	mov	r4,r17
    21b8:	800b883a 	mov	r5,r16
    21bc:	00027b40 	call	27b4 <__subdf3>
    21c0:	180b883a 	mov	r5,r3
    21c4:	1009883a 	mov	r4,r2
    21c8:	00028780 	call	2878 <__fixdfsi>
    21cc:	00e00034 	movhi	r3,32768
    21d0:	10c5883a 	add	r2,r2,r3
    21d4:	dfc00217 	ldw	ra,8(sp)
    21d8:	dc400117 	ldw	r17,4(sp)
    21dc:	dc000017 	ldw	r16,0(sp)
    21e0:	dec00304 	addi	sp,sp,12
    21e4:	f800283a 	ret

000021e8 <__divsf3>:
    21e8:	defff504 	addi	sp,sp,-44
    21ec:	d9000915 	stw	r4,36(sp)
    21f0:	d9400815 	stw	r5,32(sp)
    21f4:	d9000904 	addi	r4,sp,36
    21f8:	d9400404 	addi	r5,sp,16
    21fc:	dfc00a15 	stw	ra,40(sp)
    2200:	0002da80 	call	2da8 <__unpack_f>
    2204:	d9000804 	addi	r4,sp,32
    2208:	d80b883a 	mov	r5,sp
    220c:	0002da80 	call	2da8 <__unpack_f>
    2210:	d8c00417 	ldw	r3,16(sp)
    2214:	00800044 	movi	r2,1
    2218:	10c00536 	bltu	r2,r3,2230 <__divsf3+0x48>
    221c:	d9000404 	addi	r4,sp,16
    2220:	0002c7c0 	call	2c7c <__pack_f>
    2224:	dfc00a17 	ldw	ra,40(sp)
    2228:	dec00b04 	addi	sp,sp,44
    222c:	f800283a 	ret
    2230:	d9000017 	ldw	r4,0(sp)
    2234:	11000536 	bltu	r2,r4,224c <__divsf3+0x64>
    2238:	d809883a 	mov	r4,sp
    223c:	0002c7c0 	call	2c7c <__pack_f>
    2240:	dfc00a17 	ldw	ra,40(sp)
    2244:	dec00b04 	addi	sp,sp,44
    2248:	f800283a 	ret
    224c:	d9800517 	ldw	r6,20(sp)
    2250:	d9400117 	ldw	r5,4(sp)
    2254:	00800104 	movi	r2,4
    2258:	314af03a 	xor	r5,r6,r5
    225c:	d9400515 	stw	r5,20(sp)
    2260:	18800226 	beq	r3,r2,226c <__divsf3+0x84>
    2264:	01400084 	movi	r5,2
    2268:	1940041e 	bne	r3,r5,227c <__divsf3+0x94>
    226c:	193feb1e 	bne	r3,r4,221c <__divsf3+0x34>
    2270:	01000074 	movhi	r4,1
    2274:	21000d04 	addi	r4,r4,52
    2278:	003fe906 	br	2220 <__divsf3+0x38>
    227c:	20802226 	beq	r4,r2,2308 <__divsf3+0x120>
    2280:	21402526 	beq	r4,r5,2318 <__divsf3+0x130>
    2284:	d9000617 	ldw	r4,24(sp)
    2288:	d8c00217 	ldw	r3,8(sp)
    228c:	d8800717 	ldw	r2,28(sp)
    2290:	d9400317 	ldw	r5,12(sp)
    2294:	20c7c83a 	sub	r3,r4,r3
    2298:	d8c00615 	stw	r3,24(sp)
    229c:	1140032e 	bgeu	r2,r5,22ac <__divsf3+0xc4>
    22a0:	18ffffc4 	addi	r3,r3,-1
    22a4:	1085883a 	add	r2,r2,r2
    22a8:	d8c00615 	stw	r3,24(sp)
    22ac:	00c007c4 	movi	r3,31
    22b0:	01100034 	movhi	r4,16384
    22b4:	000d883a 	mov	r6,zero
    22b8:	18ffffc4 	addi	r3,r3,-1
    22bc:	11400236 	bltu	r2,r5,22c8 <__divsf3+0xe0>
    22c0:	310cb03a 	or	r6,r6,r4
    22c4:	1145c83a 	sub	r2,r2,r5
    22c8:	2008d07a 	srli	r4,r4,1
    22cc:	1085883a 	add	r2,r2,r2
    22d0:	183ff91e 	bne	r3,zero,22b8 <__divsf3+0xd0>
    22d4:	31001fcc 	andi	r4,r6,127
    22d8:	00c01004 	movi	r3,64
    22dc:	20c00226 	beq	r4,r3,22e8 <__divsf3+0x100>
    22e0:	d9800715 	stw	r6,28(sp)
    22e4:	003fcd06 	br	221c <__divsf3+0x34>
    22e8:	30c0200c 	andi	r3,r6,128
    22ec:	183ffc1e 	bne	r3,zero,22e0 <__divsf3+0xf8>
    22f0:	103ffb26 	beq	r2,zero,22e0 <__divsf3+0xf8>
    22f4:	31801004 	addi	r6,r6,64
    22f8:	00bfe004 	movi	r2,-128
    22fc:	308c703a 	and	r6,r6,r2
    2300:	d9800715 	stw	r6,28(sp)
    2304:	003fc506 	br	221c <__divsf3+0x34>
    2308:	d8000715 	stw	zero,28(sp)
    230c:	d8000615 	stw	zero,24(sp)
    2310:	d9000404 	addi	r4,sp,16
    2314:	003fc206 	br	2220 <__divsf3+0x38>
    2318:	d8800415 	stw	r2,16(sp)
    231c:	d9000404 	addi	r4,sp,16
    2320:	003fbf06 	br	2220 <__divsf3+0x38>

00002324 <__floatsisf>:
    2324:	2004d7fa 	srli	r2,r4,31
    2328:	defffa04 	addi	sp,sp,-24
    232c:	00c000c4 	movi	r3,3
    2330:	dfc00515 	stw	ra,20(sp)
    2334:	dc000415 	stw	r16,16(sp)
    2338:	d8c00015 	stw	r3,0(sp)
    233c:	d8800115 	stw	r2,4(sp)
    2340:	2000081e 	bne	r4,zero,2364 <__floatsisf+0x40>
    2344:	00800084 	movi	r2,2
    2348:	d8800015 	stw	r2,0(sp)
    234c:	d809883a 	mov	r4,sp
    2350:	0002c7c0 	call	2c7c <__pack_f>
    2354:	dfc00517 	ldw	ra,20(sp)
    2358:	dc000417 	ldw	r16,16(sp)
    235c:	dec00604 	addi	sp,sp,24
    2360:	f800283a 	ret
    2364:	00c00784 	movi	r3,30
    2368:	d8c00215 	stw	r3,8(sp)
    236c:	10000b1e 	bne	r2,zero,239c <__floatsisf+0x78>
    2370:	2021883a 	mov	r16,r4
    2374:	8009883a 	mov	r4,r16
    2378:	0002bd00 	call	2bd0 <__clzsi2>
    237c:	113fffc4 	addi	r4,r2,-1
    2380:	01000d0e 	bge	zero,r4,23b8 <__floatsisf+0x94>
    2384:	8108983a 	sll	r4,r16,r4
    2388:	00c007c4 	movi	r3,31
    238c:	1885c83a 	sub	r2,r3,r2
    2390:	d9000315 	stw	r4,12(sp)
    2394:	d8800215 	stw	r2,8(sp)
    2398:	003fec06 	br	234c <__floatsisf+0x28>
    239c:	00a00034 	movhi	r2,32768
    23a0:	20800726 	beq	r4,r2,23c0 <__floatsisf+0x9c>
    23a4:	0121c83a 	sub	r16,zero,r4
    23a8:	8009883a 	mov	r4,r16
    23ac:	0002bd00 	call	2bd0 <__clzsi2>
    23b0:	113fffc4 	addi	r4,r2,-1
    23b4:	013ff316 	blt	zero,r4,2384 <__floatsisf+0x60>
    23b8:	dc000315 	stw	r16,12(sp)
    23bc:	003fe306 	br	234c <__floatsisf+0x28>
    23c0:	00b3c034 	movhi	r2,52992
    23c4:	003fe306 	br	2354 <__floatsisf+0x30>

000023c8 <__extendsfdf2>:
    23c8:	defff904 	addi	sp,sp,-28
    23cc:	d9000515 	stw	r4,20(sp)
    23d0:	d9400104 	addi	r5,sp,4
    23d4:	d9000504 	addi	r4,sp,20
    23d8:	dfc00615 	stw	ra,24(sp)
    23dc:	0002da80 	call	2da8 <__unpack_f>
    23e0:	d9c00417 	ldw	r7,16(sp)
    23e4:	d9000117 	ldw	r4,4(sp)
    23e8:	d9400217 	ldw	r5,8(sp)
    23ec:	3804d0ba 	srli	r2,r7,2
    23f0:	d9800317 	ldw	r6,12(sp)
    23f4:	380e97ba 	slli	r7,r7,30
    23f8:	d8800015 	stw	r2,0(sp)
    23fc:	000294c0 	call	294c <__make_dp>
    2400:	dfc00617 	ldw	ra,24(sp)
    2404:	dec00704 	addi	sp,sp,28
    2408:	f800283a 	ret

0000240c <_fpadd_parts>:
    240c:	2005883a 	mov	r2,r4
    2410:	21000017 	ldw	r4,0(r4)
    2414:	01c00044 	movi	r7,1
    2418:	3900622e 	bgeu	r7,r4,25a4 <_fpadd_parts+0x198>
    241c:	28c00017 	ldw	r3,0(r5)
    2420:	38c05f2e 	bgeu	r7,r3,25a0 <_fpadd_parts+0x194>
    2424:	01c00104 	movi	r7,4
    2428:	21c0c626 	beq	r4,r7,2744 <_fpadd_parts+0x338>
    242c:	19c05c26 	beq	r3,r7,25a0 <_fpadd_parts+0x194>
    2430:	01c00084 	movi	r7,2
    2434:	19c06b26 	beq	r3,r7,25e4 <_fpadd_parts+0x1d8>
    2438:	21c05926 	beq	r4,r7,25a0 <_fpadd_parts+0x194>
    243c:	11c00217 	ldw	r7,8(r2)
    2440:	2ac00217 	ldw	r11,8(r5)
    2444:	13000317 	ldw	r12,12(r2)
    2448:	13400417 	ldw	r13,16(r2)
    244c:	3ac9c83a 	sub	r4,r7,r11
    2450:	2a000317 	ldw	r8,12(r5)
    2454:	2a400417 	ldw	r9,16(r5)
    2458:	2015883a 	mov	r10,r4
    245c:	20007516 	blt	r4,zero,2634 <_fpadd_parts+0x228>
    2460:	00c00fc4 	movi	r3,63
    2464:	1a805016 	blt	r3,r10,25a8 <_fpadd_parts+0x19c>
    2468:	0100870e 	bge	zero,r4,2688 <_fpadd_parts+0x27c>
    246c:	50fff804 	addi	r3,r10,-32
    2470:	18009916 	blt	r3,zero,26d8 <_fpadd_parts+0x2cc>
    2474:	48d6d83a 	srl	r11,r9,r3
    2478:	001d883a 	mov	r14,zero
    247c:	18009e16 	blt	r3,zero,26f8 <_fpadd_parts+0x2ec>
    2480:	01000044 	movi	r4,1
    2484:	20c6983a 	sll	r3,r4,r3
    2488:	0015883a 	mov	r10,zero
    248c:	513fffc4 	addi	r4,r10,-1
    2490:	2295403a 	cmpgeu	r10,r4,r10
    2494:	1a87c83a 	sub	r3,r3,r10
    2498:	1a52703a 	and	r9,r3,r9
    249c:	2210703a 	and	r8,r4,r8
    24a0:	4250b03a 	or	r8,r8,r9
    24a4:	4010c03a 	cmpne	r8,r8,zero
    24a8:	42d0b03a 	or	r8,r8,r11
    24ac:	7013883a 	mov	r9,r14
    24b0:	11000117 	ldw	r4,4(r2)
    24b4:	28800117 	ldw	r2,4(r5)
    24b8:	20804126 	beq	r4,r2,25c0 <_fpadd_parts+0x1b4>
    24bc:	20006326 	beq	r4,zero,264c <_fpadd_parts+0x240>
    24c0:	4305c83a 	sub	r2,r8,r12
    24c4:	4091803a 	cmpltu	r8,r8,r2
    24c8:	4b47c83a 	sub	r3,r9,r13
    24cc:	1a07c83a 	sub	r3,r3,r8
    24d0:	18006316 	blt	r3,zero,2660 <_fpadd_parts+0x254>
    24d4:	30000115 	stw	zero,4(r6)
    24d8:	31c00215 	stw	r7,8(r6)
    24dc:	30800315 	stw	r2,12(r6)
    24e0:	30c00415 	stw	r3,16(r6)
    24e4:	11ffffc4 	addi	r7,r2,-1
    24e8:	388b403a 	cmpgeu	r5,r7,r2
    24ec:	194bc83a 	sub	r5,r3,r5
    24f0:	01040034 	movhi	r4,4096
    24f4:	213fffc4 	addi	r4,r4,-1
    24f8:	21401736 	bltu	r4,r5,2558 <_fpadd_parts+0x14c>
    24fc:	29008226 	beq	r5,r4,2708 <_fpadd_parts+0x2fc>
    2500:	31400217 	ldw	r5,8(r6)
    2504:	02840034 	movhi	r10,4096
    2508:	52bfffc4 	addi	r10,r10,-1
    250c:	033fff84 	movi	r12,-2
    2510:	297fffc4 	addi	r5,r5,-1
    2514:	00000106 	br	251c <_fpadd_parts+0x110>
    2518:	3a804a26 	beq	r7,r10,2644 <_fpadd_parts+0x238>
    251c:	1089883a 	add	r4,r2,r2
    2520:	2091803a 	cmpltu	r8,r4,r2
    2524:	18c7883a 	add	r3,r3,r3
    2528:	227fffc4 	addi	r9,r4,-1
    252c:	40d1883a 	add	r8,r8,r3
    2530:	490f403a 	cmpgeu	r7,r9,r4
    2534:	41cfc83a 	sub	r7,r8,r7
    2538:	2817883a 	mov	r11,r5
    253c:	2005883a 	mov	r2,r4
    2540:	4007883a 	mov	r3,r8
    2544:	297fffc4 	addi	r5,r5,-1
    2548:	51fff32e 	bgeu	r10,r7,2518 <_fpadd_parts+0x10c>
    254c:	31000315 	stw	r4,12(r6)
    2550:	32000415 	stw	r8,16(r6)
    2554:	32c00215 	stw	r11,8(r6)
    2558:	010000c4 	movi	r4,3
    255c:	31000015 	stw	r4,0(r6)
    2560:	01080034 	movhi	r4,8192
    2564:	213fffc4 	addi	r4,r4,-1
    2568:	20c00b2e 	bgeu	r4,r3,2598 <_fpadd_parts+0x18c>
    256c:	180e97fa 	slli	r7,r3,31
    2570:	1008d07a 	srli	r4,r2,1
    2574:	31400217 	ldw	r5,8(r6)
    2578:	1806d07a 	srli	r3,r3,1
    257c:	1080004c 	andi	r2,r2,1
    2580:	3908b03a 	or	r4,r7,r4
    2584:	1108b03a 	or	r4,r2,r4
    2588:	29400044 	addi	r5,r5,1
    258c:	31000315 	stw	r4,12(r6)
    2590:	30c00415 	stw	r3,16(r6)
    2594:	31400215 	stw	r5,8(r6)
    2598:	3005883a 	mov	r2,r6
    259c:	f800283a 	ret
    25a0:	2805883a 	mov	r2,r5
    25a4:	f800283a 	ret
    25a8:	59c01e0e 	bge	r11,r7,2624 <_fpadd_parts+0x218>
    25ac:	11000117 	ldw	r4,4(r2)
    25b0:	28800117 	ldw	r2,4(r5)
    25b4:	0011883a 	mov	r8,zero
    25b8:	0013883a 	mov	r9,zero
    25bc:	20bfbf1e 	bne	r4,r2,24bc <_fpadd_parts+0xb0>
    25c0:	4305883a 	add	r2,r8,r12
    25c4:	1207803a 	cmpltu	r3,r2,r8
    25c8:	4b53883a 	add	r9,r9,r13
    25cc:	1a47883a 	add	r3,r3,r9
    25d0:	31000115 	stw	r4,4(r6)
    25d4:	31c00215 	stw	r7,8(r6)
    25d8:	30800315 	stw	r2,12(r6)
    25dc:	30c00415 	stw	r3,16(r6)
    25e0:	003fdd06 	br	2558 <_fpadd_parts+0x14c>
    25e4:	20ffef1e 	bne	r4,r3,25a4 <_fpadd_parts+0x198>
    25e8:	31000015 	stw	r4,0(r6)
    25ec:	10c00117 	ldw	r3,4(r2)
    25f0:	30c00115 	stw	r3,4(r6)
    25f4:	10c00217 	ldw	r3,8(r2)
    25f8:	11000117 	ldw	r4,4(r2)
    25fc:	29400117 	ldw	r5,4(r5)
    2600:	30c00215 	stw	r3,8(r6)
    2604:	10c00317 	ldw	r3,12(r2)
    2608:	2908703a 	and	r4,r5,r4
    260c:	30c00315 	stw	r3,12(r6)
    2610:	10c00417 	ldw	r3,16(r2)
    2614:	31000115 	stw	r4,4(r6)
    2618:	3005883a 	mov	r2,r6
    261c:	30c00415 	stw	r3,16(r6)
    2620:	f800283a 	ret
    2624:	580f883a 	mov	r7,r11
    2628:	0019883a 	mov	r12,zero
    262c:	001b883a 	mov	r13,zero
    2630:	003f9f06 	br	24b0 <_fpadd_parts+0xa4>
    2634:	0115c83a 	sub	r10,zero,r4
    2638:	00c00fc4 	movi	r3,63
    263c:	1abfda16 	blt	r3,r10,25a8 <_fpadd_parts+0x19c>
    2640:	003f8906 	br	2468 <_fpadd_parts+0x5c>
    2644:	627fb52e 	bgeu	r12,r9,251c <_fpadd_parts+0x110>
    2648:	003fc006 	br	254c <_fpadd_parts+0x140>
    264c:	6205c83a 	sub	r2,r12,r8
    2650:	6099803a 	cmpltu	r12,r12,r2
    2654:	6a47c83a 	sub	r3,r13,r9
    2658:	1b07c83a 	sub	r3,r3,r12
    265c:	183f9d0e 	bge	r3,zero,24d4 <_fpadd_parts+0xc8>
    2660:	0085c83a 	sub	r2,zero,r2
    2664:	1008c03a 	cmpne	r4,r2,zero
    2668:	00c7c83a 	sub	r3,zero,r3
    266c:	1907c83a 	sub	r3,r3,r4
    2670:	01000044 	movi	r4,1
    2674:	31000115 	stw	r4,4(r6)
    2678:	31c00215 	stw	r7,8(r6)
    267c:	30800315 	stw	r2,12(r6)
    2680:	30c00415 	stw	r3,16(r6)
    2684:	003f9706 	br	24e4 <_fpadd_parts+0xd8>
    2688:	203f8926 	beq	r4,zero,24b0 <_fpadd_parts+0xa4>
    268c:	50fff804 	addi	r3,r10,-32
    2690:	3a8f883a 	add	r7,r7,r10
    2694:	18002316 	blt	r3,zero,2724 <_fpadd_parts+0x318>
    2698:	68d6d83a 	srl	r11,r13,r3
    269c:	001d883a 	mov	r14,zero
    26a0:	18001c16 	blt	r3,zero,2714 <_fpadd_parts+0x308>
    26a4:	01000044 	movi	r4,1
    26a8:	20c6983a 	sll	r3,r4,r3
    26ac:	0015883a 	mov	r10,zero
    26b0:	513fffc4 	addi	r4,r10,-1
    26b4:	2295403a 	cmpgeu	r10,r4,r10
    26b8:	1a87c83a 	sub	r3,r3,r10
    26bc:	1b5a703a 	and	r13,r3,r13
    26c0:	2318703a 	and	r12,r4,r12
    26c4:	6358b03a 	or	r12,r12,r13
    26c8:	6018c03a 	cmpne	r12,r12,zero
    26cc:	62d8b03a 	or	r12,r12,r11
    26d0:	701b883a 	mov	r13,r14
    26d4:	003f7606 	br	24b0 <_fpadd_parts+0xa4>
    26d8:	4808907a 	slli	r4,r9,1
    26dc:	02c007c4 	movi	r11,31
    26e0:	5a97c83a 	sub	r11,r11,r10
    26e4:	22c8983a 	sll	r4,r4,r11
    26e8:	4296d83a 	srl	r11,r8,r10
    26ec:	4a9cd83a 	srl	r14,r9,r10
    26f0:	22d6b03a 	or	r11,r4,r11
    26f4:	003f6106 	br	247c <_fpadd_parts+0x70>
    26f8:	00c00044 	movi	r3,1
    26fc:	1a94983a 	sll	r10,r3,r10
    2700:	0007883a 	mov	r3,zero
    2704:	003f6106 	br	248c <_fpadd_parts+0x80>
    2708:	013fff84 	movi	r4,-2
    270c:	21ff7c2e 	bgeu	r4,r7,2500 <_fpadd_parts+0xf4>
    2710:	003f9106 	br	2558 <_fpadd_parts+0x14c>
    2714:	00c00044 	movi	r3,1
    2718:	1a94983a 	sll	r10,r3,r10
    271c:	0007883a 	mov	r3,zero
    2720:	003fe306 	br	26b0 <_fpadd_parts+0x2a4>
    2724:	6816907a 	slli	r11,r13,1
    2728:	010007c4 	movi	r4,31
    272c:	2289c83a 	sub	r4,r4,r10
    2730:	5908983a 	sll	r4,r11,r4
    2734:	6296d83a 	srl	r11,r12,r10
    2738:	6a9cd83a 	srl	r14,r13,r10
    273c:	22d6b03a 	or	r11,r4,r11
    2740:	003fd706 	br	26a0 <_fpadd_parts+0x294>
    2744:	193f971e 	bne	r3,r4,25a4 <_fpadd_parts+0x198>
    2748:	11000117 	ldw	r4,4(r2)
    274c:	28c00117 	ldw	r3,4(r5)
    2750:	20ff9426 	beq	r4,r3,25a4 <_fpadd_parts+0x198>
    2754:	00800074 	movhi	r2,1
    2758:	10801104 	addi	r2,r2,68
    275c:	f800283a 	ret

00002760 <__adddf3>:
    2760:	deffec04 	addi	sp,sp,-80
    2764:	d9001115 	stw	r4,68(sp)
    2768:	d9401215 	stw	r5,72(sp)
    276c:	d9001104 	addi	r4,sp,68
    2770:	d9400a04 	addi	r5,sp,40
    2774:	dfc01315 	stw	ra,76(sp)
    2778:	d9c01015 	stw	r7,64(sp)
    277c:	d9800f15 	stw	r6,60(sp)
    2780:	00030940 	call	3094 <__unpack_d>
    2784:	d9000f04 	addi	r4,sp,60
    2788:	d9400504 	addi	r5,sp,20
    278c:	00030940 	call	3094 <__unpack_d>
    2790:	d9000a04 	addi	r4,sp,40
    2794:	d9400504 	addi	r5,sp,20
    2798:	d80d883a 	mov	r6,sp
    279c:	000240c0 	call	240c <_fpadd_parts>
    27a0:	1009883a 	mov	r4,r2
    27a4:	0002e700 	call	2e70 <__pack_d>
    27a8:	dfc01317 	ldw	ra,76(sp)
    27ac:	dec01404 	addi	sp,sp,80
    27b0:	f800283a 	ret

000027b4 <__subdf3>:
    27b4:	deffec04 	addi	sp,sp,-80
    27b8:	d9001115 	stw	r4,68(sp)
    27bc:	d9401215 	stw	r5,72(sp)
    27c0:	d9001104 	addi	r4,sp,68
    27c4:	d9400a04 	addi	r5,sp,40
    27c8:	dfc01315 	stw	ra,76(sp)
    27cc:	d9c01015 	stw	r7,64(sp)
    27d0:	d9800f15 	stw	r6,60(sp)
    27d4:	00030940 	call	3094 <__unpack_d>
    27d8:	d9000f04 	addi	r4,sp,60
    27dc:	d9400504 	addi	r5,sp,20
    27e0:	00030940 	call	3094 <__unpack_d>
    27e4:	d8800617 	ldw	r2,24(sp)
    27e8:	d9000a04 	addi	r4,sp,40
    27ec:	d9400504 	addi	r5,sp,20
    27f0:	d80d883a 	mov	r6,sp
    27f4:	1080005c 	xori	r2,r2,1
    27f8:	d8800615 	stw	r2,24(sp)
    27fc:	000240c0 	call	240c <_fpadd_parts>
    2800:	1009883a 	mov	r4,r2
    2804:	0002e700 	call	2e70 <__pack_d>
    2808:	dfc01317 	ldw	ra,76(sp)
    280c:	dec01404 	addi	sp,sp,80
    2810:	f800283a 	ret

00002814 <__gedf2>:
    2814:	defff104 	addi	sp,sp,-60
    2818:	d9000c15 	stw	r4,48(sp)
    281c:	d9400d15 	stw	r5,52(sp)
    2820:	d9000c04 	addi	r4,sp,48
    2824:	d9400504 	addi	r5,sp,20
    2828:	dfc00e15 	stw	ra,56(sp)
    282c:	d9800a15 	stw	r6,40(sp)
    2830:	d9c00b15 	stw	r7,44(sp)
    2834:	00030940 	call	3094 <__unpack_d>
    2838:	d9000a04 	addi	r4,sp,40
    283c:	d80b883a 	mov	r5,sp
    2840:	00030940 	call	3094 <__unpack_d>
    2844:	d8c00517 	ldw	r3,20(sp)
    2848:	00800044 	movi	r2,1
    284c:	10c0082e 	bgeu	r2,r3,2870 <__gedf2+0x5c>
    2850:	d8c00017 	ldw	r3,0(sp)
    2854:	10c0062e 	bgeu	r2,r3,2870 <__gedf2+0x5c>
    2858:	d9000504 	addi	r4,sp,20
    285c:	d80b883a 	mov	r5,sp
    2860:	00031980 	call	3198 <__fpcmp_parts_d>
    2864:	dfc00e17 	ldw	ra,56(sp)
    2868:	dec00f04 	addi	sp,sp,60
    286c:	f800283a 	ret
    2870:	00bfffc4 	movi	r2,-1
    2874:	003ffb06 	br	2864 <__gedf2+0x50>

00002878 <__fixdfsi>:
    2878:	defff804 	addi	sp,sp,-32
    287c:	d9000515 	stw	r4,20(sp)
    2880:	d9400615 	stw	r5,24(sp)
    2884:	d9000504 	addi	r4,sp,20
    2888:	d80b883a 	mov	r5,sp
    288c:	dfc00715 	stw	ra,28(sp)
    2890:	00030940 	call	3094 <__unpack_d>
    2894:	d8800017 	ldw	r2,0(sp)
    2898:	00c00084 	movi	r3,2
    289c:	10c01c26 	beq	r2,r3,2910 <__fixdfsi+0x98>
    28a0:	00c00044 	movi	r3,1
    28a4:	18801a2e 	bgeu	r3,r2,2910 <__fixdfsi+0x98>
    28a8:	00c00104 	movi	r3,4
    28ac:	10c01126 	beq	r2,r3,28f4 <__fixdfsi+0x7c>
    28b0:	d8800217 	ldw	r2,8(sp)
    28b4:	10001616 	blt	r2,zero,2910 <__fixdfsi+0x98>
    28b8:	00c00784 	movi	r3,30
    28bc:	18800d16 	blt	r3,r2,28f4 <__fixdfsi+0x7c>
    28c0:	00c00f04 	movi	r3,60
    28c4:	1885c83a 	sub	r2,r3,r2
    28c8:	10fff804 	addi	r3,r2,-32
    28cc:	d9400317 	ldw	r5,12(sp)
    28d0:	d9000417 	ldw	r4,16(sp)
    28d4:	18001616 	blt	r3,zero,2930 <__fixdfsi+0xb8>
    28d8:	20c4d83a 	srl	r2,r4,r3
    28dc:	d8c00117 	ldw	r3,4(sp)
    28e0:	18000126 	beq	r3,zero,28e8 <__fixdfsi+0x70>
    28e4:	0085c83a 	sub	r2,zero,r2
    28e8:	dfc00717 	ldw	ra,28(sp)
    28ec:	dec00804 	addi	sp,sp,32
    28f0:	f800283a 	ret
    28f4:	d8800117 	ldw	r2,4(sp)
    28f8:	1000091e 	bne	r2,zero,2920 <__fixdfsi+0xa8>
    28fc:	00a00034 	movhi	r2,32768
    2900:	10bfffc4 	addi	r2,r2,-1
    2904:	dfc00717 	ldw	ra,28(sp)
    2908:	dec00804 	addi	sp,sp,32
    290c:	f800283a 	ret
    2910:	0005883a 	mov	r2,zero
    2914:	dfc00717 	ldw	ra,28(sp)
    2918:	dec00804 	addi	sp,sp,32
    291c:	f800283a 	ret
    2920:	00a00034 	movhi	r2,32768
    2924:	dfc00717 	ldw	ra,28(sp)
    2928:	dec00804 	addi	sp,sp,32
    292c:	f800283a 	ret
    2930:	2008907a 	slli	r4,r4,1
    2934:	018007c4 	movi	r6,31
    2938:	308dc83a 	sub	r6,r6,r2
    293c:	2188983a 	sll	r4,r4,r6
    2940:	2884d83a 	srl	r2,r5,r2
    2944:	2084b03a 	or	r2,r4,r2
    2948:	003fe406 	br	28dc <__fixdfsi+0x64>

0000294c <__make_dp>:
    294c:	defff904 	addi	sp,sp,-28
    2950:	d8800717 	ldw	r2,28(sp)
    2954:	d9000015 	stw	r4,0(sp)
    2958:	d809883a 	mov	r4,sp
    295c:	dfc00515 	stw	ra,20(sp)
    2960:	d9c00615 	stw	r7,24(sp)
    2964:	d9400115 	stw	r5,4(sp)
    2968:	d9800215 	stw	r6,8(sp)
    296c:	d9c00315 	stw	r7,12(sp)
    2970:	d8800415 	stw	r2,16(sp)
    2974:	0002e700 	call	2e70 <__pack_d>
    2978:	dfc00517 	ldw	ra,20(sp)
    297c:	dec00704 	addi	sp,sp,28
    2980:	f800283a 	ret

00002984 <__floatunsidf>:
    2984:	defff904 	addi	sp,sp,-28
    2988:	dc000515 	stw	r16,20(sp)
    298c:	dfc00615 	stw	ra,24(sp)
    2990:	d8000115 	stw	zero,4(sp)
    2994:	2021883a 	mov	r16,r4
    2998:	20001726 	beq	r4,zero,29f8 <__floatunsidf+0x74>
    299c:	008000c4 	movi	r2,3
    29a0:	d8800015 	stw	r2,0(sp)
    29a4:	00800f04 	movi	r2,60
    29a8:	d8800215 	stw	r2,8(sp)
    29ac:	0002bd00 	call	2bd0 <__clzsi2>
    29b0:	10c00744 	addi	r3,r2,29
    29b4:	18001816 	blt	r3,zero,2a18 <__floatunsidf+0x94>
    29b8:	18002d26 	beq	r3,zero,2a70 <__floatunsidf+0xec>
    29bc:	113fff44 	addi	r4,r2,-3
    29c0:	20002e16 	blt	r4,zero,2a7c <__floatunsidf+0xf8>
    29c4:	8108983a 	sll	r4,r16,r4
    29c8:	0021883a 	mov	r16,zero
    29cc:	014007c4 	movi	r5,31
    29d0:	2885c83a 	sub	r2,r5,r2
    29d4:	dc000315 	stw	r16,12(sp)
    29d8:	d9000415 	stw	r4,16(sp)
    29dc:	d8800215 	stw	r2,8(sp)
    29e0:	d809883a 	mov	r4,sp
    29e4:	0002e700 	call	2e70 <__pack_d>
    29e8:	dfc00617 	ldw	ra,24(sp)
    29ec:	dc000517 	ldw	r16,20(sp)
    29f0:	dec00704 	addi	sp,sp,28
    29f4:	f800283a 	ret
    29f8:	00800084 	movi	r2,2
    29fc:	d809883a 	mov	r4,sp
    2a00:	d8800015 	stw	r2,0(sp)
    2a04:	0002e700 	call	2e70 <__pack_d>
    2a08:	dfc00617 	ldw	ra,24(sp)
    2a0c:	dc000517 	ldw	r16,20(sp)
    2a10:	dec00704 	addi	sp,sp,28
    2a14:	f800283a 	ret
    2a18:	00c7c83a 	sub	r3,zero,r3
    2a1c:	193ff804 	addi	r4,r3,-32
    2a20:	20001c16 	blt	r4,zero,2a94 <__floatunsidf+0x110>
    2a24:	000b883a 	mov	r5,zero
    2a28:	2009d7fa 	srai	r4,r4,31
    2a2c:	80c6d83a 	srl	r3,r16,r3
    2a30:	297fffc4 	addi	r5,r5,-1
    2a34:	2c20703a 	and	r16,r5,r16
    2a38:	8020c03a 	cmpne	r16,r16,zero
    2a3c:	1906703a 	and	r3,r3,r4
    2a40:	010007c4 	movi	r4,31
    2a44:	80c6b03a 	or	r3,r16,r3
    2a48:	2085c83a 	sub	r2,r4,r2
    2a4c:	d809883a 	mov	r4,sp
    2a50:	d8c00315 	stw	r3,12(sp)
    2a54:	d8000415 	stw	zero,16(sp)
    2a58:	d8800215 	stw	r2,8(sp)
    2a5c:	0002e700 	call	2e70 <__pack_d>
    2a60:	dfc00617 	ldw	ra,24(sp)
    2a64:	dc000517 	ldw	r16,20(sp)
    2a68:	dec00704 	addi	sp,sp,28
    2a6c:	f800283a 	ret
    2a70:	dc000315 	stw	r16,12(sp)
    2a74:	d8000415 	stw	zero,16(sp)
    2a78:	003fd906 	br	29e0 <__floatunsidf+0x5c>
    2a7c:	800ad07a 	srli	r5,r16,1
    2a80:	010007c4 	movi	r4,31
    2a84:	20c9c83a 	sub	r4,r4,r3
    2a88:	2908d83a 	srl	r4,r5,r4
    2a8c:	80e0983a 	sll	r16,r16,r3
    2a90:	003fce06 	br	29cc <__floatunsidf+0x48>
    2a94:	01400044 	movi	r5,1
    2a98:	28ca983a 	sll	r5,r5,r3
    2a9c:	003fe206 	br	2a28 <__floatunsidf+0xa4>

00002aa0 <udivmodsi4>:
    2aa0:	2005883a 	mov	r2,r4
    2aa4:	2900182e 	bgeu	r5,r4,2b08 <udivmodsi4+0x68>
    2aa8:	28001716 	blt	r5,zero,2b08 <udivmodsi4+0x68>
    2aac:	01000804 	movi	r4,32
    2ab0:	00c00044 	movi	r3,1
    2ab4:	00000206 	br	2ac0 <udivmodsi4+0x20>
    2ab8:	20001126 	beq	r4,zero,2b00 <udivmodsi4+0x60>
    2abc:	28000516 	blt	r5,zero,2ad4 <udivmodsi4+0x34>
    2ac0:	294b883a 	add	r5,r5,r5
    2ac4:	213fffc4 	addi	r4,r4,-1
    2ac8:	18c7883a 	add	r3,r3,r3
    2acc:	28bffa36 	bltu	r5,r2,2ab8 <udivmodsi4+0x18>
    2ad0:	18000b26 	beq	r3,zero,2b00 <udivmodsi4+0x60>
    2ad4:	0009883a 	mov	r4,zero
    2ad8:	11400236 	bltu	r2,r5,2ae4 <udivmodsi4+0x44>
    2adc:	1145c83a 	sub	r2,r2,r5
    2ae0:	20c8b03a 	or	r4,r4,r3
    2ae4:	1806d07a 	srli	r3,r3,1
    2ae8:	280ad07a 	srli	r5,r5,1
    2aec:	183ffa1e 	bne	r3,zero,2ad8 <udivmodsi4+0x38>
    2af0:	3000021e 	bne	r6,zero,2afc <udivmodsi4+0x5c>
    2af4:	2005883a 	mov	r2,r4
    2af8:	f800283a 	ret
    2afc:	f800283a 	ret
    2b00:	0009883a 	mov	r4,zero
    2b04:	003ffa06 	br	2af0 <udivmodsi4+0x50>
    2b08:	00c00044 	movi	r3,1
    2b0c:	0009883a 	mov	r4,zero
    2b10:	003ff106 	br	2ad8 <udivmodsi4+0x38>

00002b14 <__divsi3>:
    2b14:	defffe04 	addi	sp,sp,-8
    2b18:	dfc00115 	stw	ra,4(sp)
    2b1c:	dc000015 	stw	r16,0(sp)
    2b20:	20000a16 	blt	r4,zero,2b4c <__divsi3+0x38>
    2b24:	0021883a 	mov	r16,zero
    2b28:	28000b16 	blt	r5,zero,2b58 <__divsi3+0x44>
    2b2c:	000d883a 	mov	r6,zero
    2b30:	0002aa00 	call	2aa0 <udivmodsi4>
    2b34:	80000126 	beq	r16,zero,2b3c <__divsi3+0x28>
    2b38:	0085c83a 	sub	r2,zero,r2
    2b3c:	dfc00117 	ldw	ra,4(sp)
    2b40:	dc000017 	ldw	r16,0(sp)
    2b44:	dec00204 	addi	sp,sp,8
    2b48:	f800283a 	ret
    2b4c:	0109c83a 	sub	r4,zero,r4
    2b50:	04000044 	movi	r16,1
    2b54:	283ff50e 	bge	r5,zero,2b2c <__divsi3+0x18>
    2b58:	014bc83a 	sub	r5,zero,r5
    2b5c:	8400005c 	xori	r16,r16,1
    2b60:	003ff206 	br	2b2c <__divsi3+0x18>

00002b64 <__modsi3>:
    2b64:	deffff04 	addi	sp,sp,-4
    2b68:	dfc00015 	stw	ra,0(sp)
    2b6c:	20000516 	blt	r4,zero,2b84 <__modsi3+0x20>
    2b70:	28000c16 	blt	r5,zero,2ba4 <__modsi3+0x40>
    2b74:	01800044 	movi	r6,1
    2b78:	dfc00017 	ldw	ra,0(sp)
    2b7c:	dec00104 	addi	sp,sp,4
    2b80:	0002aa01 	jmpi	2aa0 <udivmodsi4>
    2b84:	0109c83a 	sub	r4,zero,r4
    2b88:	28000b16 	blt	r5,zero,2bb8 <__modsi3+0x54>
    2b8c:	01800044 	movi	r6,1
    2b90:	0002aa00 	call	2aa0 <udivmodsi4>
    2b94:	0085c83a 	sub	r2,zero,r2
    2b98:	dfc00017 	ldw	ra,0(sp)
    2b9c:	dec00104 	addi	sp,sp,4
    2ba0:	f800283a 	ret
    2ba4:	014bc83a 	sub	r5,zero,r5
    2ba8:	01800044 	movi	r6,1
    2bac:	dfc00017 	ldw	ra,0(sp)
    2bb0:	dec00104 	addi	sp,sp,4
    2bb4:	0002aa01 	jmpi	2aa0 <udivmodsi4>
    2bb8:	014bc83a 	sub	r5,zero,r5
    2bbc:	003ff306 	br	2b8c <__modsi3+0x28>

00002bc0 <__udivsi3>:
    2bc0:	000d883a 	mov	r6,zero
    2bc4:	0002aa01 	jmpi	2aa0 <udivmodsi4>

00002bc8 <__umodsi3>:
    2bc8:	01800044 	movi	r6,1
    2bcc:	0002aa01 	jmpi	2aa0 <udivmodsi4>

00002bd0 <__clzsi2>:
    2bd0:	00bfffd4 	movui	r2,65535
    2bd4:	11000b36 	bltu	r2,r4,2c04 <__clzsi2+0x34>
    2bd8:	00803fc4 	movi	r2,255
    2bdc:	11001e2e 	bgeu	r2,r4,2c58 <__clzsi2+0x88>
    2be0:	00c00204 	movi	r3,8
    2be4:	20c8d83a 	srl	r4,r4,r3
    2be8:	00c00074 	movhi	r3,1
    2bec:	18c01604 	addi	r3,r3,88
    2bf0:	00800604 	movi	r2,24
    2bf4:	1909883a 	add	r4,r3,r4
    2bf8:	20c00003 	ldbu	r3,0(r4)
    2bfc:	10c5c83a 	sub	r2,r2,r3
    2c00:	f800283a 	ret
    2c04:	00804034 	movhi	r2,256
    2c08:	10bfffc4 	addi	r2,r2,-1
    2c0c:	11000936 	bltu	r2,r4,2c34 <__clzsi2+0x64>
    2c10:	00800404 	movi	r2,16
    2c14:	1007883a 	mov	r3,r2
    2c18:	20c8d83a 	srl	r4,r4,r3
    2c1c:	00c00074 	movhi	r3,1
    2c20:	18c01604 	addi	r3,r3,88
    2c24:	1909883a 	add	r4,r3,r4
    2c28:	20c00003 	ldbu	r3,0(r4)
    2c2c:	10c5c83a 	sub	r2,r2,r3
    2c30:	f800283a 	ret
    2c34:	00c00604 	movi	r3,24
    2c38:	20c8d83a 	srl	r4,r4,r3
    2c3c:	00c00074 	movhi	r3,1
    2c40:	18c01604 	addi	r3,r3,88
    2c44:	00800204 	movi	r2,8
    2c48:	1909883a 	add	r4,r3,r4
    2c4c:	20c00003 	ldbu	r3,0(r4)
    2c50:	10c5c83a 	sub	r2,r2,r3
    2c54:	f800283a 	ret
    2c58:	0007883a 	mov	r3,zero
    2c5c:	20c8d83a 	srl	r4,r4,r3
    2c60:	00c00074 	movhi	r3,1
    2c64:	18c01604 	addi	r3,r3,88
    2c68:	00800804 	movi	r2,32
    2c6c:	1909883a 	add	r4,r3,r4
    2c70:	20c00003 	ldbu	r3,0(r4)
    2c74:	10c5c83a 	sub	r2,r2,r3
    2c78:	f800283a 	ret

00002c7c <__pack_f>:
    2c7c:	21400017 	ldw	r5,0(r4)
    2c80:	01800044 	movi	r6,1
    2c84:	20c00317 	ldw	r3,12(r4)
    2c88:	21c00117 	ldw	r7,4(r4)
    2c8c:	3140282e 	bgeu	r6,r5,2d30 <__pack_f+0xb4>
    2c90:	00800104 	movi	r2,4
    2c94:	28802326 	beq	r5,r2,2d24 <__pack_f+0xa8>
    2c98:	00800084 	movi	r2,2
    2c9c:	28800f26 	beq	r5,r2,2cdc <__pack_f+0x60>
    2ca0:	18000e26 	beq	r3,zero,2cdc <__pack_f+0x60>
    2ca4:	21000217 	ldw	r4,8(r4)
    2ca8:	00bfe084 	movi	r2,-126
    2cac:	20802616 	blt	r4,r2,2d48 <__pack_f+0xcc>
    2cb0:	00801fc4 	movi	r2,127
    2cb4:	11001b16 	blt	r2,r4,2d24 <__pack_f+0xa8>
    2cb8:	188a703a 	and	r5,r3,r2
    2cbc:	00801004 	movi	r2,64
    2cc0:	28801126 	beq	r5,r2,2d08 <__pack_f+0x8c>
    2cc4:	18c00fc4 	addi	r3,r3,63
    2cc8:	18001316 	blt	r3,zero,2d18 <__pack_f+0x9c>
    2ccc:	21001fc4 	addi	r4,r4,127
    2cd0:	180690ba 	slli	r3,r3,2
    2cd4:	1806d27a 	srli	r3,r3,9
    2cd8:	00000206 	br	2ce4 <__pack_f+0x68>
    2cdc:	0009883a 	mov	r4,zero
    2ce0:	0007883a 	mov	r3,zero
    2ce4:	21003fcc 	andi	r4,r4,255
    2ce8:	200895fa 	slli	r4,r4,23
    2cec:	380a97fa 	slli	r5,r7,31
    2cf0:	00802034 	movhi	r2,128
    2cf4:	10bfffc4 	addi	r2,r2,-1
    2cf8:	1886703a 	and	r3,r3,r2
    2cfc:	1904b03a 	or	r2,r3,r4
    2d00:	1144b03a 	or	r2,r2,r5
    2d04:	f800283a 	ret
    2d08:	1880200c 	andi	r2,r3,128
    2d0c:	103fee26 	beq	r2,zero,2cc8 <__pack_f+0x4c>
    2d10:	18c01004 	addi	r3,r3,64
    2d14:	183fed0e 	bge	r3,zero,2ccc <__pack_f+0x50>
    2d18:	1806d07a 	srli	r3,r3,1
    2d1c:	21002004 	addi	r4,r4,128
    2d20:	003feb06 	br	2cd0 <__pack_f+0x54>
    2d24:	013fffc4 	movi	r4,-1
    2d28:	0007883a 	mov	r3,zero
    2d2c:	003fed06 	br	2ce4 <__pack_f+0x68>
    2d30:	18c00434 	orhi	r3,r3,16
    2d34:	00802034 	movhi	r2,128
    2d38:	10bfffc4 	addi	r2,r2,-1
    2d3c:	1886703a 	and	r3,r3,r2
    2d40:	013fffc4 	movi	r4,-1
    2d44:	003fe706 	br	2ce4 <__pack_f+0x68>
    2d48:	1105c83a 	sub	r2,r2,r4
    2d4c:	01000644 	movi	r4,25
    2d50:	20801216 	blt	r4,r2,2d9c <__pack_f+0x120>
    2d54:	3088983a 	sll	r4,r6,r2
    2d58:	1884d83a 	srl	r2,r3,r2
    2d5c:	213fffc4 	addi	r4,r4,-1
    2d60:	20c6703a 	and	r3,r4,r3
    2d64:	1806c03a 	cmpne	r3,r3,zero
    2d68:	1884b03a 	or	r2,r3,r2
    2d6c:	11001fcc 	andi	r4,r2,127
    2d70:	00c01004 	movi	r3,64
    2d74:	20c00a1e 	bne	r4,r3,2da0 <__pack_f+0x124>
    2d78:	10c0200c 	andi	r3,r2,128
    2d7c:	18000126 	beq	r3,zero,2d84 <__pack_f+0x108>
    2d80:	10801004 	addi	r2,r2,64
    2d84:	100690ba 	slli	r3,r2,2
    2d88:	01100034 	movhi	r4,16384
    2d8c:	1105403a 	cmpgeu	r2,r2,r4
    2d90:	1806d27a 	srli	r3,r3,9
    2d94:	1009883a 	mov	r4,r2
    2d98:	003fd206 	br	2ce4 <__pack_f+0x68>
    2d9c:	0005883a 	mov	r2,zero
    2da0:	10800fc4 	addi	r2,r2,63
    2da4:	003ff706 	br	2d84 <__pack_f+0x108>

00002da8 <__unpack_f>:
    2da8:	20c00017 	ldw	r3,0(r4)
    2dac:	00802034 	movhi	r2,128
    2db0:	10bfffc4 	addi	r2,r2,-1
    2db4:	1808d5fa 	srli	r4,r3,23
    2db8:	180cd7fa 	srli	r6,r3,31
    2dbc:	1884703a 	and	r2,r3,r2
    2dc0:	21003fcc 	andi	r4,r4,255
    2dc4:	29800115 	stw	r6,4(r5)
    2dc8:	2000111e 	bne	r4,zero,2e10 <__unpack_f+0x68>
    2dcc:	10001a26 	beq	r2,zero,2e38 <__unpack_f+0x90>
    2dd0:	00ffe084 	movi	r3,-126
    2dd4:	100491fa 	slli	r2,r2,7
    2dd8:	28c00215 	stw	r3,8(r5)
    2ddc:	00c000c4 	movi	r3,3
    2de0:	28c00015 	stw	r3,0(r5)
    2de4:	01900034 	movhi	r6,16384
    2de8:	31bfffc4 	addi	r6,r6,-1
    2dec:	30801036 	bltu	r6,r2,2e30 <__unpack_f+0x88>
    2df0:	00ffe044 	movi	r3,-127
    2df4:	1085883a 	add	r2,r2,r2
    2df8:	1809883a 	mov	r4,r3
    2dfc:	18ffffc4 	addi	r3,r3,-1
    2e00:	30bffc2e 	bgeu	r6,r2,2df4 <__unpack_f+0x4c>
    2e04:	29000215 	stw	r4,8(r5)
    2e08:	28800315 	stw	r2,12(r5)
    2e0c:	f800283a 	ret
    2e10:	01803fc4 	movi	r6,255
    2e14:	21800b26 	beq	r4,r6,2e44 <__unpack_f+0x9c>
    2e18:	100491fa 	slli	r2,r2,7
    2e1c:	213fe044 	addi	r4,r4,-127
    2e20:	00c000c4 	movi	r3,3
    2e24:	10900034 	orhi	r2,r2,16384
    2e28:	29000215 	stw	r4,8(r5)
    2e2c:	28c00015 	stw	r3,0(r5)
    2e30:	28800315 	stw	r2,12(r5)
    2e34:	f800283a 	ret
    2e38:	00800084 	movi	r2,2
    2e3c:	28800015 	stw	r2,0(r5)
    2e40:	f800283a 	ret
    2e44:	10000526 	beq	r2,zero,2e5c <__unpack_f+0xb4>
    2e48:	18c0042c 	andhi	r3,r3,16
    2e4c:	18000626 	beq	r3,zero,2e68 <__unpack_f+0xc0>
    2e50:	00c00044 	movi	r3,1
    2e54:	28c00015 	stw	r3,0(r5)
    2e58:	003ff506 	br	2e30 <__unpack_f+0x88>
    2e5c:	00800104 	movi	r2,4
    2e60:	28800015 	stw	r2,0(r5)
    2e64:	f800283a 	ret
    2e68:	28000015 	stw	zero,0(r5)
    2e6c:	003ff006 	br	2e30 <__unpack_f+0x88>

00002e70 <__pack_d>:
    2e70:	20800017 	ldw	r2,0(r4)
    2e74:	defff804 	addi	sp,sp,-32
    2e78:	dcc00315 	stw	r19,12(sp)
    2e7c:	dc800215 	stw	r18,8(sp)
    2e80:	dfc00715 	stw	ra,28(sp)
    2e84:	dd800615 	stw	r22,24(sp)
    2e88:	dd400515 	stw	r21,20(sp)
    2e8c:	dd000415 	stw	r20,16(sp)
    2e90:	dc400115 	stw	r17,4(sp)
    2e94:	dc000015 	stw	r16,0(sp)
    2e98:	04800044 	movi	r18,1
    2e9c:	24400317 	ldw	r17,12(r4)
    2ea0:	24000417 	ldw	r16,16(r4)
    2ea4:	24c00117 	ldw	r19,4(r4)
    2ea8:	9080422e 	bgeu	r18,r2,2fb4 <__pack_d+0x144>
    2eac:	00c00104 	movi	r3,4
    2eb0:	10c03c26 	beq	r2,r3,2fa4 <__pack_d+0x134>
    2eb4:	00c00084 	movi	r3,2
    2eb8:	10c01926 	beq	r2,r3,2f20 <__pack_d+0xb0>
    2ebc:	8c04b03a 	or	r2,r17,r16
    2ec0:	10001726 	beq	r2,zero,2f20 <__pack_d+0xb0>
    2ec4:	21000217 	ldw	r4,8(r4)
    2ec8:	00bf0084 	movi	r2,-1022
    2ecc:	20804016 	blt	r4,r2,2fd0 <__pack_d+0x160>
    2ed0:	0080ffc4 	movi	r2,1023
    2ed4:	11003316 	blt	r2,r4,2fa4 <__pack_d+0x134>
    2ed8:	88803fcc 	andi	r2,r17,255
    2edc:	00c02004 	movi	r3,128
    2ee0:	10c02926 	beq	r2,r3,2f88 <__pack_d+0x118>
    2ee4:	88801fc4 	addi	r2,r17,127
    2ee8:	1463803a 	cmpltu	r17,r2,r17
    2eec:	8c21883a 	add	r16,r17,r16
    2ef0:	1023883a 	mov	r17,r2
    2ef4:	00880034 	movhi	r2,8192
    2ef8:	10bfffc4 	addi	r2,r2,-1
    2efc:	14001c36 	bltu	r2,r16,2f70 <__pack_d+0x100>
    2f00:	2100ffc4 	addi	r4,r4,1023
    2f04:	8006963a 	slli	r3,r16,24
    2f08:	8804d23a 	srli	r2,r17,8
    2f0c:	8020913a 	slli	r16,r16,4
    2f10:	2101ffcc 	andi	r4,r4,2047
    2f14:	1884b03a 	or	r2,r3,r2
    2f18:	8020d33a 	srli	r16,r16,12
    2f1c:	00000306 	br	2f2c <__pack_d+0xbc>
    2f20:	0009883a 	mov	r4,zero
    2f24:	0005883a 	mov	r2,zero
    2f28:	0021883a 	mov	r16,zero
    2f2c:	2008953a 	slli	r4,r4,20
    2f30:	982697fa 	slli	r19,r19,31
    2f34:	00c00434 	movhi	r3,16
    2f38:	18ffffc4 	addi	r3,r3,-1
    2f3c:	80e0703a 	and	r16,r16,r3
    2f40:	8106b03a 	or	r3,r16,r4
    2f44:	1cc6b03a 	or	r3,r3,r19
    2f48:	dfc00717 	ldw	ra,28(sp)
    2f4c:	dd800617 	ldw	r22,24(sp)
    2f50:	dd400517 	ldw	r21,20(sp)
    2f54:	dd000417 	ldw	r20,16(sp)
    2f58:	dcc00317 	ldw	r19,12(sp)
    2f5c:	dc800217 	ldw	r18,8(sp)
    2f60:	dc400117 	ldw	r17,4(sp)
    2f64:	dc000017 	ldw	r16,0(sp)
    2f68:	dec00804 	addi	sp,sp,32
    2f6c:	f800283a 	ret
    2f70:	800697fa 	slli	r3,r16,31
    2f74:	8804d07a 	srli	r2,r17,1
    2f78:	21010004 	addi	r4,r4,1024
    2f7c:	8020d07a 	srli	r16,r16,1
    2f80:	18a2b03a 	or	r17,r3,r2
    2f84:	003fdf06 	br	2f04 <__pack_d+0x94>
    2f88:	88c0400c 	andi	r3,r17,256
    2f8c:	183fd926 	beq	r3,zero,2ef4 <__pack_d+0x84>
    2f90:	8885883a 	add	r2,r17,r2
    2f94:	1463803a 	cmpltu	r17,r2,r17
    2f98:	8c21883a 	add	r16,r17,r16
    2f9c:	1023883a 	mov	r17,r2
    2fa0:	003fd406 	br	2ef4 <__pack_d+0x84>
    2fa4:	0101ffc4 	movi	r4,2047
    2fa8:	0005883a 	mov	r2,zero
    2fac:	0021883a 	mov	r16,zero
    2fb0:	003fde06 	br	2f2c <__pack_d+0xbc>
    2fb4:	84000234 	orhi	r16,r16,8
    2fb8:	00c00434 	movhi	r3,16
    2fbc:	18ffffc4 	addi	r3,r3,-1
    2fc0:	8805883a 	mov	r2,r17
    2fc4:	80e0703a 	and	r16,r16,r3
    2fc8:	0101ffc4 	movi	r4,2047
    2fcc:	003fd706 	br	2f2c <__pack_d+0xbc>
    2fd0:	1129c83a 	sub	r20,r2,r4
    2fd4:	00800e04 	movi	r2,56
    2fd8:	15002716 	blt	r2,r20,3078 <__pack_d+0x208>
    2fdc:	800b883a 	mov	r5,r16
    2fe0:	a00d883a 	mov	r6,r20
    2fe4:	8809883a 	mov	r4,r17
    2fe8:	00032680 	call	3268 <__lshrdi3>
    2fec:	9009883a 	mov	r4,r18
    2ff0:	000b883a 	mov	r5,zero
    2ff4:	a00d883a 	mov	r6,r20
    2ff8:	102d883a 	mov	r22,r2
    2ffc:	182b883a 	mov	r21,r3
    3000:	00032ac0 	call	32ac <__ashldi3>
    3004:	1009003a 	cmpeq	r4,r2,zero
    3008:	1907c83a 	sub	r3,r3,r4
    300c:	10bfffc4 	addi	r2,r2,-1
    3010:	1c20703a 	and	r16,r3,r16
    3014:	1444703a 	and	r2,r2,r17
    3018:	1404b03a 	or	r2,r2,r16
    301c:	1004c03a 	cmpne	r2,r2,zero
    3020:	1584b03a 	or	r2,r2,r22
    3024:	11003fcc 	andi	r4,r2,255
    3028:	01402004 	movi	r5,128
    302c:	a807883a 	mov	r3,r21
    3030:	2140131e 	bne	r4,r5,3080 <__pack_d+0x210>
    3034:	1140400c 	andi	r5,r2,256
    3038:	28000426 	beq	r5,zero,304c <__pack_d+0x1dc>
    303c:	1109883a 	add	r4,r2,r4
    3040:	2085803a 	cmpltu	r2,r4,r2
    3044:	1547883a 	add	r3,r2,r21
    3048:	2005883a 	mov	r2,r4
    304c:	1808963a 	slli	r4,r3,24
    3050:	1004d23a 	srli	r2,r2,8
    3054:	1820913a 	slli	r16,r3,4
    3058:	01440034 	movhi	r5,4096
    305c:	297fffc4 	addi	r5,r5,-1
    3060:	2084b03a 	or	r2,r4,r2
    3064:	8020d33a 	srli	r16,r16,12
    3068:	01000044 	movi	r4,1
    306c:	28ffaf36 	bltu	r5,r3,2f2c <__pack_d+0xbc>
    3070:	0009883a 	mov	r4,zero
    3074:	003fad06 	br	2f2c <__pack_d+0xbc>
    3078:	0005883a 	mov	r2,zero
    307c:	0007883a 	mov	r3,zero
    3080:	11001fc4 	addi	r4,r2,127
    3084:	2085803a 	cmpltu	r2,r4,r2
    3088:	10c7883a 	add	r3,r2,r3
    308c:	2005883a 	mov	r2,r4
    3090:	003fee06 	br	304c <__pack_d+0x1dc>

00003094 <__unpack_d>:
    3094:	21800117 	ldw	r6,4(r4)
    3098:	20c00017 	ldw	r3,0(r4)
    309c:	3004d7fa 	srli	r2,r6,31
    30a0:	3008d53a 	srli	r4,r6,20
    30a4:	28800115 	stw	r2,4(r5)
    30a8:	2101ffcc 	andi	r4,r4,2047
    30ac:	00800434 	movhi	r2,16
    30b0:	10bfffc4 	addi	r2,r2,-1
    30b4:	3084703a 	and	r2,r6,r2
    30b8:	20001a1e 	bne	r4,zero,3124 <__unpack_d+0x90>
    30bc:	1888b03a 	or	r4,r3,r2
    30c0:	20002626 	beq	r4,zero,315c <__unpack_d+0xc8>
    30c4:	1808d63a 	srli	r4,r3,24
    30c8:	1004923a 	slli	r2,r2,8
    30cc:	01bf0084 	movi	r6,-1022
    30d0:	29800215 	stw	r6,8(r5)
    30d4:	2084b03a 	or	r2,r4,r2
    30d8:	010000c4 	movi	r4,3
    30dc:	29000015 	stw	r4,0(r5)
    30e0:	02040034 	movhi	r8,4096
    30e4:	423fffc4 	addi	r8,r8,-1
    30e8:	1806923a 	slli	r3,r3,8
    30ec:	40801836 	bltu	r8,r2,3150 <__unpack_d+0xbc>
    30f0:	013f0044 	movi	r4,-1023
    30f4:	18cd883a 	add	r6,r3,r3
    30f8:	30c7803a 	cmpltu	r3,r6,r3
    30fc:	1085883a 	add	r2,r2,r2
    3100:	1885883a 	add	r2,r3,r2
    3104:	200f883a 	mov	r7,r4
    3108:	3007883a 	mov	r3,r6
    310c:	213fffc4 	addi	r4,r4,-1
    3110:	40bff82e 	bgeu	r8,r2,30f4 <__unpack_d+0x60>
    3114:	29c00215 	stw	r7,8(r5)
    3118:	28c00315 	stw	r3,12(r5)
    311c:	28800415 	stw	r2,16(r5)
    3120:	f800283a 	ret
    3124:	01c1ffc4 	movi	r7,2047
    3128:	21c00f26 	beq	r4,r7,3168 <__unpack_d+0xd4>
    312c:	180cd63a 	srli	r6,r3,24
    3130:	1004923a 	slli	r2,r2,8
    3134:	213f0044 	addi	r4,r4,-1023
    3138:	1806923a 	slli	r3,r3,8
    313c:	3084b03a 	or	r2,r6,r2
    3140:	29000215 	stw	r4,8(r5)
    3144:	010000c4 	movi	r4,3
    3148:	10840034 	orhi	r2,r2,4096
    314c:	29000015 	stw	r4,0(r5)
    3150:	28c00315 	stw	r3,12(r5)
    3154:	28800415 	stw	r2,16(r5)
    3158:	f800283a 	ret
    315c:	00800084 	movi	r2,2
    3160:	28800015 	stw	r2,0(r5)
    3164:	f800283a 	ret
    3168:	1888b03a 	or	r4,r3,r2
    316c:	20000526 	beq	r4,zero,3184 <__unpack_d+0xf0>
    3170:	3180022c 	andhi	r6,r6,8
    3174:	30000626 	beq	r6,zero,3190 <__unpack_d+0xfc>
    3178:	01000044 	movi	r4,1
    317c:	29000015 	stw	r4,0(r5)
    3180:	003ff306 	br	3150 <__unpack_d+0xbc>
    3184:	00800104 	movi	r2,4
    3188:	28800015 	stw	r2,0(r5)
    318c:	f800283a 	ret
    3190:	28000015 	stw	zero,0(r5)
    3194:	003fee06 	br	3150 <__unpack_d+0xbc>

00003198 <__fpcmp_parts_d>:
    3198:	20c00017 	ldw	r3,0(r4)
    319c:	00800044 	movi	r2,1
    31a0:	10c0142e 	bgeu	r2,r3,31f4 <__fpcmp_parts_d+0x5c>
    31a4:	29800017 	ldw	r6,0(r5)
    31a8:	1180122e 	bgeu	r2,r6,31f4 <__fpcmp_parts_d+0x5c>
    31ac:	01c00104 	movi	r7,4
    31b0:	19c02826 	beq	r3,r7,3254 <__fpcmp_parts_d+0xbc>
    31b4:	31c00926 	beq	r6,r7,31dc <__fpcmp_parts_d+0x44>
    31b8:	01c00084 	movi	r7,2
    31bc:	19c00626 	beq	r3,r7,31d8 <__fpcmp_parts_d+0x40>
    31c0:	31c00a26 	beq	r6,r7,31ec <__fpcmp_parts_d+0x54>
    31c4:	20c00117 	ldw	r3,4(r4)
    31c8:	29800117 	ldw	r6,4(r5)
    31cc:	19800b26 	beq	r3,r6,31fc <__fpcmp_parts_d+0x64>
    31d0:	1800041e 	bne	r3,zero,31e4 <__fpcmp_parts_d+0x4c>
    31d4:	f800283a 	ret
    31d8:	30c01a26 	beq	r6,r3,3244 <__fpcmp_parts_d+0xac>
    31dc:	28800117 	ldw	r2,4(r5)
    31e0:	1000041e 	bne	r2,zero,31f4 <__fpcmp_parts_d+0x5c>
    31e4:	00bfffc4 	movi	r2,-1
    31e8:	f800283a 	ret
    31ec:	20800117 	ldw	r2,4(r4)
    31f0:	103ffc1e 	bne	r2,zero,31e4 <__fpcmp_parts_d+0x4c>
    31f4:	00800044 	movi	r2,1
    31f8:	f800283a 	ret
    31fc:	21c00217 	ldw	r7,8(r4)
    3200:	29800217 	ldw	r6,8(r5)
    3204:	31c0020e 	bge	r6,r7,3210 <__fpcmp_parts_d+0x78>
    3208:	183ff61e 	bne	r3,zero,31e4 <__fpcmp_parts_d+0x4c>
    320c:	f800283a 	ret
    3210:	39800a16 	blt	r7,r6,323c <__fpcmp_parts_d+0xa4>
    3214:	20800417 	ldw	r2,16(r4)
    3218:	29800417 	ldw	r6,16(r5)
    321c:	21c00317 	ldw	r7,12(r4)
    3220:	29000317 	ldw	r4,12(r5)
    3224:	30800936 	bltu	r6,r2,324c <__fpcmp_parts_d+0xb4>
    3228:	1180011e 	bne	r2,r6,3230 <__fpcmp_parts_d+0x98>
    322c:	21c00736 	bltu	r4,r7,324c <__fpcmp_parts_d+0xb4>
    3230:	11800236 	bltu	r2,r6,323c <__fpcmp_parts_d+0xa4>
    3234:	3080031e 	bne	r6,r2,3244 <__fpcmp_parts_d+0xac>
    3238:	3900022e 	bgeu	r7,r4,3244 <__fpcmp_parts_d+0xac>
    323c:	183fe926 	beq	r3,zero,31e4 <__fpcmp_parts_d+0x4c>
    3240:	003fec06 	br	31f4 <__fpcmp_parts_d+0x5c>
    3244:	0005883a 	mov	r2,zero
    3248:	f800283a 	ret
    324c:	183fe926 	beq	r3,zero,31f4 <__fpcmp_parts_d+0x5c>
    3250:	003fe406 	br	31e4 <__fpcmp_parts_d+0x4c>
    3254:	30ffe51e 	bne	r6,r3,31ec <__fpcmp_parts_d+0x54>
    3258:	28c00117 	ldw	r3,4(r5)
    325c:	20800117 	ldw	r2,4(r4)
    3260:	1885c83a 	sub	r2,r3,r2
    3264:	f800283a 	ret

00003268 <__lshrdi3>:
    3268:	2005883a 	mov	r2,r4
    326c:	2807883a 	mov	r3,r5
    3270:	30000826 	beq	r6,zero,3294 <__lshrdi3+0x2c>
    3274:	01000804 	movi	r4,32
    3278:	2189c83a 	sub	r4,r4,r6
    327c:	0100060e 	bge	zero,r4,3298 <__lshrdi3+0x30>
    3280:	1184d83a 	srl	r2,r2,r6
    3284:	2908983a 	sll	r4,r5,r4
    3288:	298cd83a 	srl	r6,r5,r6
    328c:	2084b03a 	or	r2,r4,r2
    3290:	3007883a 	mov	r3,r6
    3294:	f800283a 	ret
    3298:	0105c83a 	sub	r2,zero,r4
    329c:	000d883a 	mov	r6,zero
    32a0:	2884d83a 	srl	r2,r5,r2
    32a4:	3007883a 	mov	r3,r6
    32a8:	003ffa06 	br	3294 <__lshrdi3+0x2c>

000032ac <__ashldi3>:
    32ac:	2005883a 	mov	r2,r4
    32b0:	2807883a 	mov	r3,r5
    32b4:	30000826 	beq	r6,zero,32d8 <__ashldi3+0x2c>
    32b8:	01000804 	movi	r4,32
    32bc:	2189c83a 	sub	r4,r4,r6
    32c0:	0100060e 	bge	zero,r4,32dc <__ashldi3+0x30>
    32c4:	1108d83a 	srl	r4,r2,r4
    32c8:	2986983a 	sll	r3,r5,r6
    32cc:	118c983a 	sll	r6,r2,r6
    32d0:	20c6b03a 	or	r3,r4,r3
    32d4:	3005883a 	mov	r2,r6
    32d8:	f800283a 	ret
    32dc:	0107c83a 	sub	r3,zero,r4
    32e0:	000d883a 	mov	r6,zero
    32e4:	10c6983a 	sll	r3,r2,r3
    32e8:	3005883a 	mov	r2,r6
    32ec:	003ffa06 	br	32d8 <__ashldi3+0x2c>

000032f0 <_sprintf_r>:
    32f0:	deffe704 	addi	sp,sp,-100
    32f4:	2807883a 	mov	r3,r5
    32f8:	dfc01715 	stw	ra,92(sp)
    32fc:	d9c01815 	stw	r7,96(sp)
    3300:	00a00034 	movhi	r2,32768
    3304:	10bfffc4 	addi	r2,r2,-1
    3308:	02008204 	movi	r8,520
    330c:	d8800215 	stw	r2,8(sp)
    3310:	d8800515 	stw	r2,20(sp)
    3314:	d80b883a 	mov	r5,sp
    3318:	d9c01804 	addi	r7,sp,96
    331c:	00bfffc4 	movi	r2,-1
    3320:	d8c00015 	stw	r3,0(sp)
    3324:	d8c00415 	stw	r3,16(sp)
    3328:	da00030d 	sth	r8,12(sp)
    332c:	d880038d 	sth	r2,14(sp)
    3330:	00033e80 	call	33e8 <___vfprintf_internal_r>
    3334:	d8c00017 	ldw	r3,0(sp)
    3338:	18000005 	stb	zero,0(r3)
    333c:	dfc01717 	ldw	ra,92(sp)
    3340:	dec01904 	addi	sp,sp,100
    3344:	f800283a 	ret

00003348 <sprintf>:
    3348:	deffe604 	addi	sp,sp,-104
    334c:	2007883a 	mov	r3,r4
    3350:	dfc01715 	stw	ra,92(sp)
    3354:	d9801815 	stw	r6,96(sp)
    3358:	d9c01915 	stw	r7,100(sp)
    335c:	00800074 	movhi	r2,1
    3360:	108c7f04 	addi	r2,r2,12796
    3364:	11000017 	ldw	r4,0(r2)
    3368:	00a00034 	movhi	r2,32768
    336c:	10bfffc4 	addi	r2,r2,-1
    3370:	280d883a 	mov	r6,r5
    3374:	02008204 	movi	r8,520
    3378:	d8800215 	stw	r2,8(sp)
    337c:	d8800515 	stw	r2,20(sp)
    3380:	d80b883a 	mov	r5,sp
    3384:	d9c01804 	addi	r7,sp,96
    3388:	00bfffc4 	movi	r2,-1
    338c:	d8c00015 	stw	r3,0(sp)
    3390:	d8c00415 	stw	r3,16(sp)
    3394:	da00030d 	sth	r8,12(sp)
    3398:	d880038d 	sth	r2,14(sp)
    339c:	00033e80 	call	33e8 <___vfprintf_internal_r>
    33a0:	d8c00017 	ldw	r3,0(sp)
    33a4:	18000005 	stb	zero,0(r3)
    33a8:	dfc01717 	ldw	ra,92(sp)
    33ac:	dec01a04 	addi	sp,sp,104
    33b0:	f800283a 	ret

000033b4 <__sprint_r>:
    33b4:	30800217 	ldw	r2,8(r6)
    33b8:	defffe04 	addi	sp,sp,-8
    33bc:	dc000015 	stw	r16,0(sp)
    33c0:	dfc00115 	stw	ra,4(sp)
    33c4:	3021883a 	mov	r16,r6
    33c8:	10000226 	beq	r2,zero,33d4 <__sprint_r+0x20>
    33cc:	00074980 	call	7498 <__sfvwrite_r>
    33d0:	80000215 	stw	zero,8(r16)
    33d4:	80000115 	stw	zero,4(r16)
    33d8:	dfc00117 	ldw	ra,4(sp)
    33dc:	dc000017 	ldw	r16,0(sp)
    33e0:	dec00204 	addi	sp,sp,8
    33e4:	f800283a 	ret

000033e8 <___vfprintf_internal_r>:
    33e8:	defeb904 	addi	sp,sp,-1308
    33ec:	dc013d15 	stw	r16,1268(sp)
    33f0:	d9013015 	stw	r4,1216(sp)
    33f4:	dfc14615 	stw	ra,1304(sp)
    33f8:	df014515 	stw	fp,1300(sp)
    33fc:	ddc14415 	stw	r23,1296(sp)
    3400:	dd814315 	stw	r22,1292(sp)
    3404:	dd414215 	stw	r21,1288(sp)
    3408:	dd014115 	stw	r20,1284(sp)
    340c:	dcc14015 	stw	r19,1280(sp)
    3410:	dc813f15 	stw	r18,1276(sp)
    3414:	dc413e15 	stw	r17,1272(sp)
    3418:	d9412915 	stw	r5,1188(sp)
    341c:	3021883a 	mov	r16,r6
    3420:	d9c12d15 	stw	r7,1204(sp)
    3424:	0007b840 	call	7b84 <_localeconv_r>
    3428:	10800017 	ldw	r2,0(r2)
    342c:	d9013017 	ldw	r4,1216(sp)
    3430:	d8013315 	stw	zero,1228(sp)
    3434:	d8813715 	stw	r2,1244(sp)
    3438:	d8013415 	stw	zero,1232(sp)
    343c:	20000226 	beq	r4,zero,3448 <___vfprintf_internal_r+0x60>
    3440:	20800e17 	ldw	r2,56(r4)
    3444:	10019826 	beq	r2,zero,3aa8 <___vfprintf_internal_r+0x6c0>
    3448:	da012917 	ldw	r8,1188(sp)
    344c:	4080030b 	ldhu	r2,12(r8)
    3450:	10c0020c 	andi	r3,r2,8
    3454:	18ffffcc 	andi	r3,r3,65535
    3458:	18e0001c 	xori	r3,r3,32768
    345c:	18e00004 	addi	r3,r3,-32768
    3460:	18013a26 	beq	r3,zero,394c <___vfprintf_internal_r+0x564>
    3464:	40c00417 	ldw	r3,16(r8)
    3468:	18013826 	beq	r3,zero,394c <___vfprintf_internal_r+0x564>
    346c:	1100068c 	andi	r4,r2,26
    3470:	00c00284 	movi	r3,10
    3474:	20c13e26 	beq	r4,r3,3970 <___vfprintf_internal_r+0x588>
    3478:	da010dc4 	addi	r8,sp,1079
    347c:	d8800404 	addi	r2,sp,16
    3480:	da012615 	stw	r8,1176(sp)
    3484:	d8811b15 	stw	r2,1132(sp)
    3488:	1013883a 	mov	r9,r2
    348c:	d8812617 	ldw	r2,1176(sp)
    3490:	da010e04 	addi	r8,sp,1080
    3494:	dc413017 	ldw	r17,1216(sp)
    3498:	da012715 	stw	r8,1180(sp)
    349c:	4091c83a 	sub	r8,r8,r2
    34a0:	d8011d15 	stw	zero,1140(sp)
    34a4:	d8011c15 	stw	zero,1136(sp)
    34a8:	802b883a 	mov	r21,r16
    34ac:	d8013215 	stw	zero,1224(sp)
    34b0:	d8013615 	stw	zero,1240(sp)
    34b4:	d8013515 	stw	zero,1236(sp)
    34b8:	d8012c15 	stw	zero,1200(sp)
    34bc:	da013915 	stw	r8,1252(sp)
    34c0:	a8800007 	ldb	r2,0(r21)
    34c4:	1002ec26 	beq	r2,zero,4078 <___vfprintf_internal_r+0xc90>
    34c8:	00c00944 	movi	r3,37
    34cc:	a825883a 	mov	r18,r21
    34d0:	10c0021e 	bne	r2,r3,34dc <___vfprintf_internal_r+0xf4>
    34d4:	00001406 	br	3528 <___vfprintf_internal_r+0x140>
    34d8:	10c00326 	beq	r2,r3,34e8 <___vfprintf_internal_r+0x100>
    34dc:	94800044 	addi	r18,r18,1
    34e0:	90800007 	ldb	r2,0(r18)
    34e4:	103ffc1e 	bne	r2,zero,34d8 <___vfprintf_internal_r+0xf0>
    34e8:	9561c83a 	sub	r16,r18,r21
    34ec:	80000e26 	beq	r16,zero,3528 <___vfprintf_internal_r+0x140>
    34f0:	da011d17 	ldw	r8,1140(sp)
    34f4:	d8c11c17 	ldw	r3,1136(sp)
    34f8:	4d400015 	stw	r21,0(r9)
    34fc:	4c000115 	stw	r16,4(r9)
    3500:	4411883a 	add	r8,r8,r16
    3504:	18c00044 	addi	r3,r3,1
    3508:	da011d15 	stw	r8,1140(sp)
    350c:	d8c11c15 	stw	r3,1136(sp)
    3510:	008001c4 	movi	r2,7
    3514:	10c15d16 	blt	r2,r3,3a8c <___vfprintf_internal_r+0x6a4>
    3518:	4a400204 	addi	r9,r9,8
    351c:	d8812c17 	ldw	r2,1200(sp)
    3520:	1405883a 	add	r2,r2,r16
    3524:	d8812c15 	stw	r2,1200(sp)
    3528:	90800007 	ldb	r2,0(r18)
    352c:	10013b26 	beq	r2,zero,3a1c <___vfprintf_internal_r+0x634>
    3530:	95400044 	addi	r21,r18,1
    3534:	94800047 	ldb	r18,1(r18)
    3538:	d8012585 	stb	zero,1174(sp)
    353c:	073fffc4 	movi	fp,-1
    3540:	d8012e15 	stw	zero,1208(sp)
    3544:	0021883a 	mov	r16,zero
    3548:	00c01604 	movi	r3,88
    354c:	01400244 	movi	r5,9
    3550:	02800a84 	movi	r10,42
    3554:	01c01b04 	movi	r7,108
    3558:	01800ac4 	movi	r6,43
    355c:	02c00804 	movi	r11,32
    3560:	ad400044 	addi	r21,r21,1
    3564:	90bff804 	addi	r2,r18,-32
    3568:	1880092e 	bgeu	r3,r2,3590 <___vfprintf_internal_r+0x1a8>
    356c:	90012b26 	beq	r18,zero,3a1c <___vfprintf_internal_r+0x634>
    3570:	00c00044 	movi	r3,1
    3574:	d8c12815 	stw	r3,1184(sp)
    3578:	dc810405 	stb	r18,1040(sp)
    357c:	d8012585 	stb	zero,1174(sp)
    3580:	d8c12b15 	stw	r3,1196(sp)
    3584:	dcc10404 	addi	r19,sp,1040
    3588:	d8013115 	stw	zero,1220(sp)
    358c:	00008806 	br	37b0 <___vfprintf_internal_r+0x3c8>
    3590:	1085883a 	add	r2,r2,r2
    3594:	1085883a 	add	r2,r2,r2
    3598:	01000034 	movhi	r4,0
    359c:	210d6b04 	addi	r4,r4,13740
    35a0:	1105883a 	add	r2,r2,r4
    35a4:	10800017 	ldw	r2,0(r2)
    35a8:	1000683a 	jmp	r2
    35ac:	00003b60 	cmpeqi	zero,zero,237
    35b0:	0000356c 	andhi	zero,zero,213
    35b4:	0000356c 	andhi	zero,zero,213
    35b8:	00003b74 	movhi	zero,237
    35bc:	0000356c 	andhi	zero,zero,213
    35c0:	0000356c 	andhi	zero,zero,213
    35c4:	0000356c 	andhi	zero,zero,213
    35c8:	0000356c 	andhi	zero,zero,213
    35cc:	0000356c 	andhi	zero,zero,213
    35d0:	0000356c 	andhi	zero,zero,213
    35d4:	00003c5c 	xori	zero,zero,241
    35d8:	00003b18 	cmpnei	zero,zero,236
    35dc:	0000356c 	andhi	zero,zero,213
    35e0:	00003940 	call	394 <uart_co_ISR+0x1c>
    35e4:	00003b24 	muli	zero,zero,236
    35e8:	0000356c 	andhi	zero,zero,213
    35ec:	00003b80 	call	3b8 <uart_co_ISR+0x40>
    35f0:	00003c80 	call	3c8 <uart_co_ISR+0x50>
    35f4:	00003c80 	call	3c8 <uart_co_ISR+0x50>
    35f8:	00003c80 	call	3c8 <uart_co_ISR+0x50>
    35fc:	00003c80 	call	3c8 <uart_co_ISR+0x50>
    3600:	00003c80 	call	3c8 <uart_co_ISR+0x50>
    3604:	00003c80 	call	3c8 <uart_co_ISR+0x50>
    3608:	00003c80 	call	3c8 <uart_co_ISR+0x50>
    360c:	00003c80 	call	3c8 <uart_co_ISR+0x50>
    3610:	00003c80 	call	3c8 <uart_co_ISR+0x50>
    3614:	0000356c 	andhi	zero,zero,213
    3618:	0000356c 	andhi	zero,zero,213
    361c:	0000356c 	andhi	zero,zero,213
    3620:	0000356c 	andhi	zero,zero,213
    3624:	0000356c 	andhi	zero,zero,213
    3628:	0000356c 	andhi	zero,zero,213
    362c:	0000356c 	andhi	zero,zero,213
    3630:	0000356c 	andhi	zero,zero,213
    3634:	0000356c 	andhi	zero,zero,213
    3638:	0000356c 	andhi	zero,zero,213
    363c:	000038dc 	xori	zero,zero,227
    3640:	00003ca8 	cmpgeui	zero,zero,242
    3644:	0000356c 	andhi	zero,zero,213
    3648:	00003ca8 	cmpgeui	zero,zero,242
    364c:	0000356c 	andhi	zero,zero,213
    3650:	0000356c 	andhi	zero,zero,213
    3654:	0000356c 	andhi	zero,zero,213
    3658:	0000356c 	andhi	zero,zero,213
    365c:	00003e18 	cmpnei	zero,zero,248
    3660:	0000356c 	andhi	zero,zero,213
    3664:	0000356c 	andhi	zero,zero,213
    3668:	000038a4 	muli	zero,zero,226
    366c:	0000356c 	andhi	zero,zero,213
    3670:	0000356c 	andhi	zero,zero,213
    3674:	0000356c 	andhi	zero,zero,213
    3678:	0000356c 	andhi	zero,zero,213
    367c:	0000356c 	andhi	zero,zero,213
    3680:	00003710 	cmplti	zero,zero,220
    3684:	0000356c 	andhi	zero,zero,213
    3688:	0000356c 	andhi	zero,zero,213
    368c:	00003b8c 	andi	zero,zero,238
    3690:	0000356c 	andhi	zero,zero,213
    3694:	0000356c 	andhi	zero,zero,213
    3698:	0000356c 	andhi	zero,zero,213
    369c:	0000356c 	andhi	zero,zero,213
    36a0:	0000356c 	andhi	zero,zero,213
    36a4:	0000356c 	andhi	zero,zero,213
    36a8:	0000356c 	andhi	zero,zero,213
    36ac:	0000356c 	andhi	zero,zero,213
    36b0:	0000356c 	andhi	zero,zero,213
    36b4:	0000356c 	andhi	zero,zero,213
    36b8:	00003c00 	call	3c0 <uart_co_ISR+0x48>
    36bc:	000038e0 	cmpeqi	zero,zero,227
    36c0:	00003ca8 	cmpgeui	zero,zero,242
    36c4:	00003ca8 	cmpgeui	zero,zero,242
    36c8:	00003ca8 	cmpgeui	zero,zero,242
    36cc:	00003be0 	cmpeqi	zero,zero,239
    36d0:	000038e0 	cmpeqi	zero,zero,227
    36d4:	0000356c 	andhi	zero,zero,213
    36d8:	0000356c 	andhi	zero,zero,213
    36dc:	00003bec 	andhi	zero,zero,239
    36e0:	0000356c 	andhi	zero,zero,213
    36e4:	00003c30 	cmpltui	zero,zero,240
    36e8:	000038a8 	cmpgeui	zero,zero,226
    36ec:	00003d30 	cmpltui	zero,zero,244
    36f0:	00003d7c 	xorhi	zero,zero,245
    36f4:	0000356c 	andhi	zero,zero,213
    36f8:	00003d88 	cmpgei	zero,zero,246
    36fc:	0000356c 	andhi	zero,zero,213
    3700:	00003714 	movui	zero,220
    3704:	0000356c 	andhi	zero,zero,213
    3708:	0000356c 	andhi	zero,zero,213
    370c:	00003de4 	muli	zero,zero,247
    3710:	84000414 	ori	r16,r16,16
    3714:	8080080c 	andi	r2,r16,32
    3718:	1000f51e 	bne	r2,zero,3af0 <___vfprintf_internal_r+0x708>
    371c:	8080040c 	andi	r2,r16,16
    3720:	10042c26 	beq	r2,zero,47d4 <___vfprintf_internal_r+0x13ec>
    3724:	da012d17 	ldw	r8,1204(sp)
    3728:	002d883a 	mov	r22,zero
    372c:	00c00044 	movi	r3,1
    3730:	45c00017 	ldw	r23,0(r8)
    3734:	42000104 	addi	r8,r8,4
    3738:	da012d15 	stw	r8,1204(sp)
    373c:	b805883a 	mov	r2,r23
    3740:	d8012585 	stb	zero,1174(sp)
    3744:	e0000216 	blt	fp,zero,3750 <___vfprintf_internal_r+0x368>
    3748:	013fdfc4 	movi	r4,-129
    374c:	8120703a 	and	r16,r16,r4
    3750:	1002671e 	bne	r2,zero,40f0 <___vfprintf_internal_r+0xd08>
    3754:	e002661e 	bne	fp,zero,40f0 <___vfprintf_internal_r+0xd08>
    3758:	18c03fcc 	andi	r3,r3,255
    375c:	1803561e 	bne	r3,zero,44b8 <___vfprintf_internal_r+0x10d0>
    3760:	8080004c 	andi	r2,r16,1
    3764:	10035426 	beq	r2,zero,44b8 <___vfprintf_internal_r+0x10d0>
    3768:	da013917 	ldw	r8,1252(sp)
    376c:	00800c04 	movi	r2,48
    3770:	d8810dc5 	stb	r2,1079(sp)
    3774:	da012b15 	stw	r8,1196(sp)
    3778:	dcc10dc4 	addi	r19,sp,1079
    377c:	d8812b17 	ldw	r2,1196(sp)
    3780:	d8812815 	stw	r2,1184(sp)
    3784:	1700010e 	bge	r2,fp,378c <___vfprintf_internal_r+0x3a4>
    3788:	df012815 	stw	fp,1184(sp)
    378c:	d8812583 	ldbu	r2,1174(sp)
    3790:	df013115 	stw	fp,1220(sp)
    3794:	10803fcc 	andi	r2,r2,255
    3798:	1080201c 	xori	r2,r2,128
    379c:	10bfe004 	addi	r2,r2,-128
    37a0:	10000326 	beq	r2,zero,37b0 <___vfprintf_internal_r+0x3c8>
    37a4:	da012817 	ldw	r8,1184(sp)
    37a8:	42000044 	addi	r8,r8,1
    37ac:	da012815 	stw	r8,1184(sp)
    37b0:	80c0008c 	andi	r3,r16,2
    37b4:	d8c12a15 	stw	r3,1192(sp)
    37b8:	18000326 	beq	r3,zero,37c8 <___vfprintf_internal_r+0x3e0>
    37bc:	da012817 	ldw	r8,1184(sp)
    37c0:	42000084 	addi	r8,r8,2
    37c4:	da012815 	stw	r8,1184(sp)
    37c8:	80c0210c 	andi	r3,r16,132
    37cc:	d8c12f15 	stw	r3,1212(sp)
    37d0:	1801941e 	bne	r3,zero,3e24 <___vfprintf_internal_r+0xa3c>
    37d4:	da012e17 	ldw	r8,1208(sp)
    37d8:	d8c12817 	ldw	r3,1184(sp)
    37dc:	40edc83a 	sub	r22,r8,r3
    37e0:	0581900e 	bge	zero,r22,3e24 <___vfprintf_internal_r+0xa3c>
    37e4:	02800404 	movi	r10,16
    37e8:	da011d17 	ldw	r8,1140(sp)
    37ec:	d8c11c17 	ldw	r3,1136(sp)
    37f0:	05c00074 	movhi	r23,1
    37f4:	bdc06684 	addi	r23,r23,410
    37f8:	5580200e 	bge	r10,r22,387c <___vfprintf_internal_r+0x494>
    37fc:	dc813815 	stw	r18,1248(sp)
    3800:	5039883a 	mov	fp,r10
    3804:	b825883a 	mov	r18,r23
    3808:	050001c4 	movi	r20,7
    380c:	b02f883a 	mov	r23,r22
    3810:	802d883a 	mov	r22,r16
    3814:	dc012917 	ldw	r16,1188(sp)
    3818:	00000306 	br	3828 <___vfprintf_internal_r+0x440>
    381c:	bdfffc04 	addi	r23,r23,-16
    3820:	4a400204 	addi	r9,r9,8
    3824:	e5c0110e 	bge	fp,r23,386c <___vfprintf_internal_r+0x484>
    3828:	4c800015 	stw	r18,0(r9)
    382c:	4f000115 	stw	fp,4(r9)
    3830:	42000404 	addi	r8,r8,16
    3834:	18c00044 	addi	r3,r3,1
    3838:	da011d15 	stw	r8,1140(sp)
    383c:	d8c11c15 	stw	r3,1136(sp)
    3840:	a0fff60e 	bge	r20,r3,381c <___vfprintf_internal_r+0x434>
    3844:	8809883a 	mov	r4,r17
    3848:	800b883a 	mov	r5,r16
    384c:	d9811b04 	addi	r6,sp,1132
    3850:	00033b40 	call	33b4 <__sprint_r>
    3854:	1000771e 	bne	r2,zero,3a34 <___vfprintf_internal_r+0x64c>
    3858:	bdfffc04 	addi	r23,r23,-16
    385c:	da011d17 	ldw	r8,1140(sp)
    3860:	d8c11c17 	ldw	r3,1136(sp)
    3864:	da400404 	addi	r9,sp,16
    3868:	e5ffef16 	blt	fp,r23,3828 <___vfprintf_internal_r+0x440>
    386c:	b021883a 	mov	r16,r22
    3870:	b82d883a 	mov	r22,r23
    3874:	902f883a 	mov	r23,r18
    3878:	dc813817 	ldw	r18,1248(sp)
    387c:	4dc00015 	stw	r23,0(r9)
    3880:	4d800115 	stw	r22,4(r9)
    3884:	4591883a 	add	r8,r8,r22
    3888:	18c00044 	addi	r3,r3,1
    388c:	da011d15 	stw	r8,1140(sp)
    3890:	d8c11c15 	stw	r3,1136(sp)
    3894:	008001c4 	movi	r2,7
    3898:	10c36d16 	blt	r2,r3,4650 <___vfprintf_internal_r+0x1268>
    389c:	4a400204 	addi	r9,r9,8
    38a0:	00016206 	br	3e2c <___vfprintf_internal_r+0xa44>
    38a4:	84000414 	ori	r16,r16,16
    38a8:	8080080c 	andi	r2,r16,32
    38ac:	1000801e 	bne	r2,zero,3ab0 <___vfprintf_internal_r+0x6c8>
    38b0:	8080040c 	andi	r2,r16,16
    38b4:	1003da26 	beq	r2,zero,4820 <___vfprintf_internal_r+0x1438>
    38b8:	d8c12d17 	ldw	r3,1204(sp)
    38bc:	002d883a 	mov	r22,zero
    38c0:	1dc00017 	ldw	r23,0(r3)
    38c4:	18c00104 	addi	r3,r3,4
    38c8:	d8c12d15 	stw	r3,1204(sp)
    38cc:	b805883a 	mov	r2,r23
    38d0:	0007883a 	mov	r3,zero
    38d4:	d8012585 	stb	zero,1174(sp)
    38d8:	003f9a06 	br	3744 <___vfprintf_internal_r+0x35c>
    38dc:	84000414 	ori	r16,r16,16
    38e0:	8080080c 	andi	r2,r16,32
    38e4:	10007b1e 	bne	r2,zero,3ad4 <___vfprintf_internal_r+0x6ec>
    38e8:	8080040c 	andi	r2,r16,16
    38ec:	1003ed26 	beq	r2,zero,48a4 <___vfprintf_internal_r+0x14bc>
    38f0:	d9012d17 	ldw	r4,1204(sp)
    38f4:	25c00017 	ldw	r23,0(r4)
    38f8:	21000104 	addi	r4,r4,4
    38fc:	d9012d15 	stw	r4,1204(sp)
    3900:	b82dd7fa 	srai	r22,r23,31
    3904:	b005883a 	mov	r2,r22
    3908:	1003230e 	bge	r2,zero,4598 <___vfprintf_internal_r+0x11b0>
    390c:	05efc83a 	sub	r23,zero,r23
    3910:	b804c03a 	cmpne	r2,r23,zero
    3914:	05adc83a 	sub	r22,zero,r22
    3918:	b0adc83a 	sub	r22,r22,r2
    391c:	00800b44 	movi	r2,45
    3920:	d8812585 	stb	r2,1174(sp)
    3924:	00c00044 	movi	r3,1
    3928:	bd84b03a 	or	r2,r23,r22
    392c:	003f8506 	br	3744 <___vfprintf_internal_r+0x35c>
    3930:	da012e17 	ldw	r8,1208(sp)
    3934:	d8812d15 	stw	r2,1204(sp)
    3938:	0211c83a 	sub	r8,zero,r8
    393c:	da012e15 	stw	r8,1208(sp)
    3940:	84000114 	ori	r16,r16,4
    3944:	ac800007 	ldb	r18,0(r21)
    3948:	003f0506 	br	3560 <___vfprintf_internal_r+0x178>
    394c:	d9013017 	ldw	r4,1216(sp)
    3950:	d9412917 	ldw	r5,1188(sp)
    3954:	00052040 	call	5204 <__swsetup_r>
    3958:	10003d1e 	bne	r2,zero,3a50 <___vfprintf_internal_r+0x668>
    395c:	d8c12917 	ldw	r3,1188(sp)
    3960:	1880030b 	ldhu	r2,12(r3)
    3964:	00c00284 	movi	r3,10
    3968:	1100068c 	andi	r4,r2,26
    396c:	20fec21e 	bne	r4,r3,3478 <___vfprintf_internal_r+0x90>
    3970:	d9012917 	ldw	r4,1188(sp)
    3974:	20c0038b 	ldhu	r3,14(r4)
    3978:	193fffcc 	andi	r4,r3,65535
    397c:	2120001c 	xori	r4,r4,32768
    3980:	21200004 	addi	r4,r4,-32768
    3984:	203ebc16 	blt	r4,zero,3478 <___vfprintf_internal_r+0x90>
    3988:	da012917 	ldw	r8,1188(sp)
    398c:	d9013017 	ldw	r4,1216(sp)
    3990:	d9c12d17 	ldw	r7,1204(sp)
    3994:	42800717 	ldw	r10,28(r8)
    3998:	42400917 	ldw	r9,36(r8)
    399c:	10bfff4c 	andi	r2,r2,65533
    39a0:	02010004 	movi	r8,1024
    39a4:	d881070d 	sth	r2,1052(sp)
    39a8:	d9410404 	addi	r5,sp,1040
    39ac:	d8800404 	addi	r2,sp,16
    39b0:	800d883a 	mov	r6,r16
    39b4:	d8c1078d 	sth	r3,1054(sp)
    39b8:	da810b15 	stw	r10,1068(sp)
    39bc:	da410d15 	stw	r9,1076(sp)
    39c0:	d8810415 	stw	r2,1040(sp)
    39c4:	d8810815 	stw	r2,1056(sp)
    39c8:	da010615 	stw	r8,1048(sp)
    39cc:	da010915 	stw	r8,1060(sp)
    39d0:	d8010a15 	stw	zero,1064(sp)
    39d4:	00033e80 	call	33e8 <___vfprintf_internal_r>
    39d8:	d8812c15 	stw	r2,1200(sp)
    39dc:	10000416 	blt	r2,zero,39f0 <___vfprintf_internal_r+0x608>
    39e0:	d9013017 	ldw	r4,1216(sp)
    39e4:	d9410404 	addi	r5,sp,1040
    39e8:	0006b9c0 	call	6b9c <_fflush_r>
    39ec:	1005d81e 	bne	r2,zero,5150 <___vfprintf_internal_r+0x1d68>
    39f0:	d881070b 	ldhu	r2,1052(sp)
    39f4:	1080100c 	andi	r2,r2,64
    39f8:	10bfffcc 	andi	r2,r2,65535
    39fc:	10a0001c 	xori	r2,r2,32768
    3a00:	10a00004 	addi	r2,r2,-32768
    3a04:	10001426 	beq	r2,zero,3a58 <___vfprintf_internal_r+0x670>
    3a08:	d8c12917 	ldw	r3,1188(sp)
    3a0c:	1880030b 	ldhu	r2,12(r3)
    3a10:	10801014 	ori	r2,r2,64
    3a14:	1880030d 	sth	r2,12(r3)
    3a18:	00000f06 	br	3a58 <___vfprintf_internal_r+0x670>
    3a1c:	d8811d17 	ldw	r2,1140(sp)
    3a20:	10000426 	beq	r2,zero,3a34 <___vfprintf_internal_r+0x64c>
    3a24:	d9013017 	ldw	r4,1216(sp)
    3a28:	d9412917 	ldw	r5,1188(sp)
    3a2c:	d9811b04 	addi	r6,sp,1132
    3a30:	00033b40 	call	33b4 <__sprint_r>
    3a34:	d8c12917 	ldw	r3,1188(sp)
    3a38:	1880030b 	ldhu	r2,12(r3)
    3a3c:	1080100c 	andi	r2,r2,64
    3a40:	10bfffcc 	andi	r2,r2,65535
    3a44:	10a0001c 	xori	r2,r2,32768
    3a48:	10a00004 	addi	r2,r2,-32768
    3a4c:	10000226 	beq	r2,zero,3a58 <___vfprintf_internal_r+0x670>
    3a50:	00bfffc4 	movi	r2,-1
    3a54:	d8812c15 	stw	r2,1200(sp)
    3a58:	d8812c17 	ldw	r2,1200(sp)
    3a5c:	dfc14617 	ldw	ra,1304(sp)
    3a60:	df014517 	ldw	fp,1300(sp)
    3a64:	ddc14417 	ldw	r23,1296(sp)
    3a68:	dd814317 	ldw	r22,1292(sp)
    3a6c:	dd414217 	ldw	r21,1288(sp)
    3a70:	dd014117 	ldw	r20,1284(sp)
    3a74:	dcc14017 	ldw	r19,1280(sp)
    3a78:	dc813f17 	ldw	r18,1276(sp)
    3a7c:	dc413e17 	ldw	r17,1272(sp)
    3a80:	dc013d17 	ldw	r16,1268(sp)
    3a84:	dec14704 	addi	sp,sp,1308
    3a88:	f800283a 	ret
    3a8c:	d9412917 	ldw	r5,1188(sp)
    3a90:	8809883a 	mov	r4,r17
    3a94:	d9811b04 	addi	r6,sp,1132
    3a98:	00033b40 	call	33b4 <__sprint_r>
    3a9c:	103fe51e 	bne	r2,zero,3a34 <___vfprintf_internal_r+0x64c>
    3aa0:	da400404 	addi	r9,sp,16
    3aa4:	003e9d06 	br	351c <___vfprintf_internal_r+0x134>
    3aa8:	0006e440 	call	6e44 <__sinit>
    3aac:	003e6606 	br	3448 <___vfprintf_internal_r+0x60>
    3ab0:	d8812d17 	ldw	r2,1204(sp)
    3ab4:	0007883a 	mov	r3,zero
    3ab8:	15c00017 	ldw	r23,0(r2)
    3abc:	15800117 	ldw	r22,4(r2)
    3ac0:	10800204 	addi	r2,r2,8
    3ac4:	d8812d15 	stw	r2,1204(sp)
    3ac8:	d8012585 	stb	zero,1174(sp)
    3acc:	bd84b03a 	or	r2,r23,r22
    3ad0:	003f1c06 	br	3744 <___vfprintf_internal_r+0x35c>
    3ad4:	d8c12d17 	ldw	r3,1204(sp)
    3ad8:	18800117 	ldw	r2,4(r3)
    3adc:	1dc00017 	ldw	r23,0(r3)
    3ae0:	18c00204 	addi	r3,r3,8
    3ae4:	d8c12d15 	stw	r3,1204(sp)
    3ae8:	102d883a 	mov	r22,r2
    3aec:	003f8606 	br	3908 <___vfprintf_internal_r+0x520>
    3af0:	d8c12d17 	ldw	r3,1204(sp)
    3af4:	d9012d17 	ldw	r4,1204(sp)
    3af8:	1dc00017 	ldw	r23,0(r3)
    3afc:	1d800117 	ldw	r22,4(r3)
    3b00:	21000204 	addi	r4,r4,8
    3b04:	00c00044 	movi	r3,1
    3b08:	d9012d15 	stw	r4,1204(sp)
    3b0c:	bd84b03a 	or	r2,r23,r22
    3b10:	d8012585 	stb	zero,1174(sp)
    3b14:	003f0b06 	br	3744 <___vfprintf_internal_r+0x35c>
    3b18:	d9812585 	stb	r6,1174(sp)
    3b1c:	ac800007 	ldb	r18,0(r21)
    3b20:	003e8f06 	br	3560 <___vfprintf_internal_r+0x178>
    3b24:	ac800007 	ldb	r18,0(r21)
    3b28:	a9000044 	addi	r4,r21,1
    3b2c:	92857d26 	beq	r18,r10,5124 <___vfprintf_internal_r+0x1d3c>
    3b30:	90bff404 	addi	r2,r18,-48
    3b34:	0039883a 	mov	fp,zero
    3b38:	28800736 	bltu	r5,r2,3b58 <___vfprintf_internal_r+0x770>
    3b3c:	24800007 	ldb	r18,0(r4)
    3b40:	e70002a4 	muli	fp,fp,10
    3b44:	21000044 	addi	r4,r4,1
    3b48:	1739883a 	add	fp,r2,fp
    3b4c:	90bff404 	addi	r2,r18,-48
    3b50:	28bffa2e 	bgeu	r5,r2,3b3c <___vfprintf_internal_r+0x754>
    3b54:	e0044216 	blt	fp,zero,4c60 <___vfprintf_internal_r+0x1878>
    3b58:	202b883a 	mov	r21,r4
    3b5c:	003e8106 	br	3564 <___vfprintf_internal_r+0x17c>
    3b60:	d8812587 	ldb	r2,1174(sp)
    3b64:	1003581e 	bne	r2,zero,48c8 <___vfprintf_internal_r+0x14e0>
    3b68:	dac12585 	stb	r11,1174(sp)
    3b6c:	ac800007 	ldb	r18,0(r21)
    3b70:	003e7b06 	br	3560 <___vfprintf_internal_r+0x178>
    3b74:	84000054 	ori	r16,r16,1
    3b78:	ac800007 	ldb	r18,0(r21)
    3b7c:	003e7806 	br	3560 <___vfprintf_internal_r+0x178>
    3b80:	84002014 	ori	r16,r16,128
    3b84:	ac800007 	ldb	r18,0(r21)
    3b88:	003e7506 	br	3560 <___vfprintf_internal_r+0x178>
    3b8c:	02000074 	movhi	r8,1
    3b90:	42005a04 	addi	r8,r8,360
    3b94:	da013615 	stw	r8,1240(sp)
    3b98:	8080080c 	andi	r2,r16,32
    3b9c:	10009626 	beq	r2,zero,3df8 <___vfprintf_internal_r+0xa10>
    3ba0:	d8812d17 	ldw	r2,1204(sp)
    3ba4:	15c00017 	ldw	r23,0(r2)
    3ba8:	15800117 	ldw	r22,4(r2)
    3bac:	10800204 	addi	r2,r2,8
    3bb0:	d8812d15 	stw	r2,1204(sp)
    3bb4:	8080004c 	andi	r2,r16,1
    3bb8:	1002ae26 	beq	r2,zero,4674 <___vfprintf_internal_r+0x128c>
    3bbc:	bd84b03a 	or	r2,r23,r22
    3bc0:	10032a26 	beq	r2,zero,486c <___vfprintf_internal_r+0x1484>
    3bc4:	00c00c04 	movi	r3,48
    3bc8:	d8c12505 	stb	r3,1172(sp)
    3bcc:	dc812545 	stb	r18,1173(sp)
    3bd0:	84000094 	ori	r16,r16,2
    3bd4:	00c00084 	movi	r3,2
    3bd8:	d8012585 	stb	zero,1174(sp)
    3bdc:	003ed906 	br	3744 <___vfprintf_internal_r+0x35c>
    3be0:	84001014 	ori	r16,r16,64
    3be4:	ac800007 	ldb	r18,0(r21)
    3be8:	003e5d06 	br	3560 <___vfprintf_internal_r+0x178>
    3bec:	ac800007 	ldb	r18,0(r21)
    3bf0:	a805883a 	mov	r2,r21
    3bf4:	91c43226 	beq	r18,r7,4cc0 <___vfprintf_internal_r+0x18d8>
    3bf8:	84000414 	ori	r16,r16,16
    3bfc:	003e5806 	br	3560 <___vfprintf_internal_r+0x178>
    3c00:	d8c12d17 	ldw	r3,1204(sp)
    3c04:	02000044 	movi	r8,1
    3c08:	da012815 	stw	r8,1184(sp)
    3c0c:	18800017 	ldw	r2,0(r3)
    3c10:	18c00104 	addi	r3,r3,4
    3c14:	d8012585 	stb	zero,1174(sp)
    3c18:	d8810405 	stb	r2,1040(sp)
    3c1c:	d8c12d15 	stw	r3,1204(sp)
    3c20:	da012b15 	stw	r8,1196(sp)
    3c24:	dcc10404 	addi	r19,sp,1040
    3c28:	d8013115 	stw	zero,1220(sp)
    3c2c:	003ee006 	br	37b0 <___vfprintf_internal_r+0x3c8>
    3c30:	8080080c 	andi	r2,r16,32
    3c34:	10031026 	beq	r2,zero,4878 <___vfprintf_internal_r+0x1490>
    3c38:	d9012d17 	ldw	r4,1204(sp)
    3c3c:	da012c17 	ldw	r8,1200(sp)
    3c40:	20800017 	ldw	r2,0(r4)
    3c44:	4007d7fa 	srai	r3,r8,31
    3c48:	21000104 	addi	r4,r4,4
    3c4c:	d9012d15 	stw	r4,1204(sp)
    3c50:	12000015 	stw	r8,0(r2)
    3c54:	10c00115 	stw	r3,4(r2)
    3c58:	003e1906 	br	34c0 <___vfprintf_internal_r+0xd8>
    3c5c:	da012d17 	ldw	r8,1204(sp)
    3c60:	d9012d17 	ldw	r4,1204(sp)
    3c64:	42000017 	ldw	r8,0(r8)
    3c68:	20800104 	addi	r2,r4,4
    3c6c:	da012e15 	stw	r8,1208(sp)
    3c70:	403f2f16 	blt	r8,zero,3930 <___vfprintf_internal_r+0x548>
    3c74:	d8812d15 	stw	r2,1204(sp)
    3c78:	ac800007 	ldb	r18,0(r21)
    3c7c:	003e3806 	br	3560 <___vfprintf_internal_r+0x178>
    3c80:	0009883a 	mov	r4,zero
    3c84:	90bff404 	addi	r2,r18,-48
    3c88:	ac800007 	ldb	r18,0(r21)
    3c8c:	210002a4 	muli	r4,r4,10
    3c90:	ad400044 	addi	r21,r21,1
    3c94:	2089883a 	add	r4,r4,r2
    3c98:	90bff404 	addi	r2,r18,-48
    3c9c:	28bffa2e 	bgeu	r5,r2,3c88 <___vfprintf_internal_r+0x8a0>
    3ca0:	d9012e15 	stw	r4,1208(sp)
    3ca4:	003e2f06 	br	3564 <___vfprintf_internal_r+0x17c>
    3ca8:	8080020c 	andi	r2,r16,8
    3cac:	1002d426 	beq	r2,zero,4800 <___vfprintf_internal_r+0x1418>
    3cb0:	d8c12d17 	ldw	r3,1204(sp)
    3cb4:	1d800017 	ldw	r22,0(r3)
    3cb8:	1d000117 	ldw	r20,4(r3)
    3cbc:	18c00204 	addi	r3,r3,8
    3cc0:	d8c12d15 	stw	r3,1204(sp)
    3cc4:	dd813315 	stw	r22,1228(sp)
    3cc8:	dd013415 	stw	r20,1232(sp)
    3ccc:	b009883a 	mov	r4,r22
    3cd0:	a00b883a 	mov	r5,r20
    3cd4:	da413c15 	stw	r9,1264(sp)
    3cd8:	0009e7c0 	call	9e7c <__isinfd>
    3cdc:	da413c17 	ldw	r9,1264(sp)
    3ce0:	b009883a 	mov	r4,r22
    3ce4:	a00b883a 	mov	r5,r20
    3ce8:	10035726 	beq	r2,zero,4a48 <___vfprintf_internal_r+0x1660>
    3cec:	000d883a 	mov	r6,zero
    3cf0:	000f883a 	mov	r7,zero
    3cf4:	000b73c0 	call	b73c <__ltdf2>
    3cf8:	da413c17 	ldw	r9,1264(sp)
    3cfc:	10041b16 	blt	r2,zero,4d6c <___vfprintf_internal_r+0x1984>
    3d00:	d8812583 	ldbu	r2,1174(sp)
    3d04:	00c011c4 	movi	r3,71
    3d08:	1c830b16 	blt	r3,r18,4938 <___vfprintf_internal_r+0x1550>
    3d0c:	04c00074 	movhi	r19,1
    3d10:	9cc05604 	addi	r19,r19,344
    3d14:	020000c4 	movi	r8,3
    3d18:	00ffdfc4 	movi	r3,-129
    3d1c:	da012815 	stw	r8,1184(sp)
    3d20:	80e0703a 	and	r16,r16,r3
    3d24:	da012b15 	stw	r8,1196(sp)
    3d28:	d8013115 	stw	zero,1220(sp)
    3d2c:	003e9906 	br	3794 <___vfprintf_internal_r+0x3ac>
    3d30:	d8812d17 	ldw	r2,1204(sp)
    3d34:	d8c12d17 	ldw	r3,1204(sp)
    3d38:	02000074 	movhi	r8,1
    3d3c:	42005f04 	addi	r8,r8,380
    3d40:	15c00017 	ldw	r23,0(r2)
    3d44:	00800c04 	movi	r2,48
    3d48:	18c00104 	addi	r3,r3,4
    3d4c:	d8812505 	stb	r2,1172(sp)
    3d50:	00801e04 	movi	r2,120
    3d54:	d8812545 	stb	r2,1173(sp)
    3d58:	d8c12d15 	stw	r3,1204(sp)
    3d5c:	002d883a 	mov	r22,zero
    3d60:	84000094 	ori	r16,r16,2
    3d64:	da013615 	stw	r8,1240(sp)
    3d68:	00c00084 	movi	r3,2
    3d6c:	04801e04 	movi	r18,120
    3d70:	b805883a 	mov	r2,r23
    3d74:	d8012585 	stb	zero,1174(sp)
    3d78:	003e7206 	br	3744 <___vfprintf_internal_r+0x35c>
    3d7c:	84000814 	ori	r16,r16,32
    3d80:	ac800007 	ldb	r18,0(r21)
    3d84:	003df606 	br	3560 <___vfprintf_internal_r+0x178>
    3d88:	d8812d17 	ldw	r2,1204(sp)
    3d8c:	d8012585 	stb	zero,1174(sp)
    3d90:	14c00017 	ldw	r19,0(r2)
    3d94:	15c00104 	addi	r23,r2,4
    3d98:	98040126 	beq	r19,zero,4da0 <___vfprintf_internal_r+0x19b8>
    3d9c:	9809883a 	mov	r4,r19
    3da0:	e003dd16 	blt	fp,zero,4d18 <___vfprintf_internal_r+0x1930>
    3da4:	000b883a 	mov	r5,zero
    3da8:	e00d883a 	mov	r6,fp
    3dac:	da413c15 	stw	r9,1264(sp)
    3db0:	00084e40 	call	84e4 <memchr>
    3db4:	da413c17 	ldw	r9,1264(sp)
    3db8:	10042e26 	beq	r2,zero,4e74 <___vfprintf_internal_r+0x1a8c>
    3dbc:	14c5c83a 	sub	r2,r2,r19
    3dc0:	d8812b15 	stw	r2,1196(sp)
    3dc4:	e083790e 	bge	fp,r2,4bac <___vfprintf_internal_r+0x17c4>
    3dc8:	df012815 	stw	fp,1184(sp)
    3dcc:	e0049516 	blt	fp,zero,5024 <___vfprintf_internal_r+0x1c3c>
    3dd0:	d8812583 	ldbu	r2,1174(sp)
    3dd4:	df012b15 	stw	fp,1196(sp)
    3dd8:	ddc12d15 	stw	r23,1204(sp)
    3ddc:	d8013115 	stw	zero,1220(sp)
    3de0:	003e6c06 	br	3794 <___vfprintf_internal_r+0x3ac>
    3de4:	02000074 	movhi	r8,1
    3de8:	42005f04 	addi	r8,r8,380
    3dec:	da013615 	stw	r8,1240(sp)
    3df0:	8080080c 	andi	r2,r16,32
    3df4:	103f6a1e 	bne	r2,zero,3ba0 <___vfprintf_internal_r+0x7b8>
    3df8:	8080040c 	andi	r2,r16,16
    3dfc:	10029326 	beq	r2,zero,484c <___vfprintf_internal_r+0x1464>
    3e00:	d8c12d17 	ldw	r3,1204(sp)
    3e04:	002d883a 	mov	r22,zero
    3e08:	1dc00017 	ldw	r23,0(r3)
    3e0c:	18c00104 	addi	r3,r3,4
    3e10:	d8c12d15 	stw	r3,1204(sp)
    3e14:	003f6706 	br	3bb4 <___vfprintf_internal_r+0x7cc>
    3e18:	84000214 	ori	r16,r16,8
    3e1c:	ac800007 	ldb	r18,0(r21)
    3e20:	003dcf06 	br	3560 <___vfprintf_internal_r+0x178>
    3e24:	da011d17 	ldw	r8,1140(sp)
    3e28:	d8c11c17 	ldw	r3,1136(sp)
    3e2c:	d8812587 	ldb	r2,1174(sp)
    3e30:	10000b26 	beq	r2,zero,3e60 <___vfprintf_internal_r+0xa78>
    3e34:	d8812584 	addi	r2,sp,1174
    3e38:	48800015 	stw	r2,0(r9)
    3e3c:	00800044 	movi	r2,1
    3e40:	48800115 	stw	r2,4(r9)
    3e44:	4091883a 	add	r8,r8,r2
    3e48:	1887883a 	add	r3,r3,r2
    3e4c:	da011d15 	stw	r8,1140(sp)
    3e50:	d8c11c15 	stw	r3,1136(sp)
    3e54:	008001c4 	movi	r2,7
    3e58:	10c18516 	blt	r2,r3,4470 <___vfprintf_internal_r+0x1088>
    3e5c:	4a400204 	addi	r9,r9,8
    3e60:	d9012a17 	ldw	r4,1192(sp)
    3e64:	20000b26 	beq	r4,zero,3e94 <___vfprintf_internal_r+0xaac>
    3e68:	d8812504 	addi	r2,sp,1172
    3e6c:	48800015 	stw	r2,0(r9)
    3e70:	00800084 	movi	r2,2
    3e74:	48800115 	stw	r2,4(r9)
    3e78:	4091883a 	add	r8,r8,r2
    3e7c:	18c00044 	addi	r3,r3,1
    3e80:	da011d15 	stw	r8,1140(sp)
    3e84:	d8c11c15 	stw	r3,1136(sp)
    3e88:	008001c4 	movi	r2,7
    3e8c:	10c18116 	blt	r2,r3,4494 <___vfprintf_internal_r+0x10ac>
    3e90:	4a400204 	addi	r9,r9,8
    3e94:	d9012f17 	ldw	r4,1212(sp)
    3e98:	00802004 	movi	r2,128
    3e9c:	2080fc26 	beq	r4,r2,4290 <___vfprintf_internal_r+0xea8>
    3ea0:	d8813117 	ldw	r2,1220(sp)
    3ea4:	d9012b17 	ldw	r4,1196(sp)
    3ea8:	112fc83a 	sub	r23,r2,r4
    3eac:	05c02a0e 	bge	zero,r23,3f58 <___vfprintf_internal_r+0xb70>
    3eb0:	07000404 	movi	fp,16
    3eb4:	05000074 	movhi	r20,1
    3eb8:	a5006a84 	addi	r20,r20,426
    3ebc:	e5c01d0e 	bge	fp,r23,3f34 <___vfprintf_internal_r+0xb4c>
    3ec0:	dc812a15 	stw	r18,1192(sp)
    3ec4:	058001c4 	movi	r22,7
    3ec8:	a025883a 	mov	r18,r20
    3ecc:	8029883a 	mov	r20,r16
    3ed0:	dc012917 	ldw	r16,1188(sp)
    3ed4:	00000306 	br	3ee4 <___vfprintf_internal_r+0xafc>
    3ed8:	bdfffc04 	addi	r23,r23,-16
    3edc:	4a400204 	addi	r9,r9,8
    3ee0:	e5c0110e 	bge	fp,r23,3f28 <___vfprintf_internal_r+0xb40>
    3ee4:	4c800015 	stw	r18,0(r9)
    3ee8:	4f000115 	stw	fp,4(r9)
    3eec:	42000404 	addi	r8,r8,16
    3ef0:	18c00044 	addi	r3,r3,1
    3ef4:	da011d15 	stw	r8,1140(sp)
    3ef8:	d8c11c15 	stw	r3,1136(sp)
    3efc:	b0fff60e 	bge	r22,r3,3ed8 <___vfprintf_internal_r+0xaf0>
    3f00:	8809883a 	mov	r4,r17
    3f04:	800b883a 	mov	r5,r16
    3f08:	d9811b04 	addi	r6,sp,1132
    3f0c:	00033b40 	call	33b4 <__sprint_r>
    3f10:	103ec81e 	bne	r2,zero,3a34 <___vfprintf_internal_r+0x64c>
    3f14:	bdfffc04 	addi	r23,r23,-16
    3f18:	da011d17 	ldw	r8,1140(sp)
    3f1c:	d8c11c17 	ldw	r3,1136(sp)
    3f20:	da400404 	addi	r9,sp,16
    3f24:	e5ffef16 	blt	fp,r23,3ee4 <___vfprintf_internal_r+0xafc>
    3f28:	a021883a 	mov	r16,r20
    3f2c:	9029883a 	mov	r20,r18
    3f30:	dc812a17 	ldw	r18,1192(sp)
    3f34:	4d000015 	stw	r20,0(r9)
    3f38:	4dc00115 	stw	r23,4(r9)
    3f3c:	45d1883a 	add	r8,r8,r23
    3f40:	18c00044 	addi	r3,r3,1
    3f44:	da011d15 	stw	r8,1140(sp)
    3f48:	d8c11c15 	stw	r3,1136(sp)
    3f4c:	008001c4 	movi	r2,7
    3f50:	10c13e16 	blt	r2,r3,444c <___vfprintf_internal_r+0x1064>
    3f54:	4a400204 	addi	r9,r9,8
    3f58:	8080400c 	andi	r2,r16,256
    3f5c:	1000831e 	bne	r2,zero,416c <___vfprintf_internal_r+0xd84>
    3f60:	d8812b17 	ldw	r2,1196(sp)
    3f64:	4cc00015 	stw	r19,0(r9)
    3f68:	48800115 	stw	r2,4(r9)
    3f6c:	4091883a 	add	r8,r8,r2
    3f70:	18c00044 	addi	r3,r3,1
    3f74:	da011d15 	stw	r8,1140(sp)
    3f78:	d8c11c15 	stw	r3,1136(sp)
    3f7c:	008001c4 	movi	r2,7
    3f80:	10c05316 	blt	r2,r3,40d0 <___vfprintf_internal_r+0xce8>
    3f84:	4a400204 	addi	r9,r9,8
    3f88:	8400010c 	andi	r16,r16,4
    3f8c:	80002e26 	beq	r16,zero,4048 <___vfprintf_internal_r+0xc60>
    3f90:	d8812e17 	ldw	r2,1208(sp)
    3f94:	d8c12817 	ldw	r3,1184(sp)
    3f98:	10e1c83a 	sub	r16,r2,r3
    3f9c:	04002a0e 	bge	zero,r16,4048 <___vfprintf_internal_r+0xc60>
    3fa0:	04800404 	movi	r18,16
    3fa4:	d8c11c17 	ldw	r3,1136(sp)
    3fa8:	05c00074 	movhi	r23,1
    3fac:	bdc06684 	addi	r23,r23,410
    3fb0:	9400170e 	bge	r18,r16,4010 <___vfprintf_internal_r+0xc28>
    3fb4:	04c001c4 	movi	r19,7
    3fb8:	dd012917 	ldw	r20,1188(sp)
    3fbc:	00000306 	br	3fcc <___vfprintf_internal_r+0xbe4>
    3fc0:	843ffc04 	addi	r16,r16,-16
    3fc4:	4a400204 	addi	r9,r9,8
    3fc8:	9400110e 	bge	r18,r16,4010 <___vfprintf_internal_r+0xc28>
    3fcc:	4dc00015 	stw	r23,0(r9)
    3fd0:	4c800115 	stw	r18,4(r9)
    3fd4:	42000404 	addi	r8,r8,16
    3fd8:	18c00044 	addi	r3,r3,1
    3fdc:	da011d15 	stw	r8,1140(sp)
    3fe0:	d8c11c15 	stw	r3,1136(sp)
    3fe4:	98fff60e 	bge	r19,r3,3fc0 <___vfprintf_internal_r+0xbd8>
    3fe8:	8809883a 	mov	r4,r17
    3fec:	a00b883a 	mov	r5,r20
    3ff0:	d9811b04 	addi	r6,sp,1132
    3ff4:	00033b40 	call	33b4 <__sprint_r>
    3ff8:	103e8e1e 	bne	r2,zero,3a34 <___vfprintf_internal_r+0x64c>
    3ffc:	843ffc04 	addi	r16,r16,-16
    4000:	da011d17 	ldw	r8,1140(sp)
    4004:	d8c11c17 	ldw	r3,1136(sp)
    4008:	da400404 	addi	r9,sp,16
    400c:	943fef16 	blt	r18,r16,3fcc <___vfprintf_internal_r+0xbe4>
    4010:	4dc00015 	stw	r23,0(r9)
    4014:	4c000115 	stw	r16,4(r9)
    4018:	8211883a 	add	r8,r16,r8
    401c:	18c00044 	addi	r3,r3,1
    4020:	da011d15 	stw	r8,1140(sp)
    4024:	d8c11c15 	stw	r3,1136(sp)
    4028:	008001c4 	movi	r2,7
    402c:	10c0060e 	bge	r2,r3,4048 <___vfprintf_internal_r+0xc60>
    4030:	d9412917 	ldw	r5,1188(sp)
    4034:	8809883a 	mov	r4,r17
    4038:	d9811b04 	addi	r6,sp,1132
    403c:	00033b40 	call	33b4 <__sprint_r>
    4040:	103e7c1e 	bne	r2,zero,3a34 <___vfprintf_internal_r+0x64c>
    4044:	da011d17 	ldw	r8,1140(sp)
    4048:	dd012817 	ldw	r20,1184(sp)
    404c:	d9012e17 	ldw	r4,1208(sp)
    4050:	a100010e 	bge	r20,r4,4058 <___vfprintf_internal_r+0xc70>
    4054:	2029883a 	mov	r20,r4
    4058:	d8812c17 	ldw	r2,1200(sp)
    405c:	1505883a 	add	r2,r2,r20
    4060:	d8812c15 	stw	r2,1200(sp)
    4064:	4000b91e 	bne	r8,zero,434c <___vfprintf_internal_r+0xf64>
    4068:	d8011c15 	stw	zero,1136(sp)
    406c:	a8800007 	ldb	r2,0(r21)
    4070:	da400404 	addi	r9,sp,16
    4074:	103d141e 	bne	r2,zero,34c8 <___vfprintf_internal_r+0xe0>
    4078:	a825883a 	mov	r18,r21
    407c:	003d2a06 	br	3528 <___vfprintf_internal_r+0x140>
    4080:	d9412917 	ldw	r5,1188(sp)
    4084:	8809883a 	mov	r4,r17
    4088:	d9811b04 	addi	r6,sp,1132
    408c:	00033b40 	call	33b4 <__sprint_r>
    4090:	103e681e 	bne	r2,zero,3a34 <___vfprintf_internal_r+0x64c>
    4094:	da011d17 	ldw	r8,1140(sp)
    4098:	da400404 	addi	r9,sp,16
    409c:	8080004c 	andi	r2,r16,1
    40a0:	103fb926 	beq	r2,zero,3f88 <___vfprintf_internal_r+0xba0>
    40a4:	d8c11c17 	ldw	r3,1136(sp)
    40a8:	d9013717 	ldw	r4,1244(sp)
    40ac:	00800044 	movi	r2,1
    40b0:	48800115 	stw	r2,4(r9)
    40b4:	49000015 	stw	r4,0(r9)
    40b8:	4091883a 	add	r8,r8,r2
    40bc:	1887883a 	add	r3,r3,r2
    40c0:	da011d15 	stw	r8,1140(sp)
    40c4:	d8c11c15 	stw	r3,1136(sp)
    40c8:	008001c4 	movi	r2,7
    40cc:	10ffad0e 	bge	r2,r3,3f84 <___vfprintf_internal_r+0xb9c>
    40d0:	d9412917 	ldw	r5,1188(sp)
    40d4:	8809883a 	mov	r4,r17
    40d8:	d9811b04 	addi	r6,sp,1132
    40dc:	00033b40 	call	33b4 <__sprint_r>
    40e0:	103e541e 	bne	r2,zero,3a34 <___vfprintf_internal_r+0x64c>
    40e4:	da400404 	addi	r9,sp,16
    40e8:	da011d17 	ldw	r8,1140(sp)
    40ec:	003fa606 	br	3f88 <___vfprintf_internal_r+0xba0>
    40f0:	18803fcc 	andi	r2,r3,255
    40f4:	00c00044 	movi	r3,1
    40f8:	10c10126 	beq	r2,r3,4500 <___vfprintf_internal_r+0x1118>
    40fc:	00c00084 	movi	r3,2
    4100:	10c0f026 	beq	r2,r3,44c4 <___vfprintf_internal_r+0x10dc>
    4104:	d8c10dc4 	addi	r3,sp,1079
    4108:	b808d0fa 	srli	r4,r23,3
    410c:	b00a977a 	slli	r5,r22,29
    4110:	b02cd0fa 	srli	r22,r22,3
    4114:	bdc001cc 	andi	r23,r23,7
    4118:	b8800c04 	addi	r2,r23,48
    411c:	292eb03a 	or	r23,r5,r4
    4120:	18800005 	stb	r2,0(r3)
    4124:	bd88b03a 	or	r4,r23,r22
    4128:	1827883a 	mov	r19,r3
    412c:	18ffffc4 	addi	r3,r3,-1
    4130:	203ff51e 	bne	r4,zero,4108 <___vfprintf_internal_r+0xd20>
    4134:	8100004c 	andi	r4,r16,1
    4138:	980b883a 	mov	r5,r19
    413c:	20000726 	beq	r4,zero,415c <___vfprintf_internal_r+0xd74>
    4140:	10803fcc 	andi	r2,r2,255
    4144:	1080201c 	xori	r2,r2,128
    4148:	10bfe004 	addi	r2,r2,-128
    414c:	01000c04 	movi	r4,48
    4150:	11000226 	beq	r2,r4,415c <___vfprintf_internal_r+0xd74>
    4154:	1827883a 	mov	r19,r3
    4158:	293fffc5 	stb	r4,-1(r5)
    415c:	d8812717 	ldw	r2,1180(sp)
    4160:	14c5c83a 	sub	r2,r2,r19
    4164:	d8812b15 	stw	r2,1196(sp)
    4168:	003d8406 	br	377c <___vfprintf_internal_r+0x394>
    416c:	00801944 	movi	r2,101
    4170:	14807c0e 	bge	r2,r18,4364 <___vfprintf_internal_r+0xf7c>
    4174:	d9013317 	ldw	r4,1228(sp)
    4178:	d9413417 	ldw	r5,1232(sp)
    417c:	000d883a 	mov	r6,zero
    4180:	000f883a 	mov	r7,zero
    4184:	d8c13b15 	stw	r3,1260(sp)
    4188:	da013a15 	stw	r8,1256(sp)
    418c:	da413c15 	stw	r9,1264(sp)
    4190:	000b6200 	call	b620 <__eqdf2>
    4194:	d8c13b17 	ldw	r3,1260(sp)
    4198:	da013a17 	ldw	r8,1256(sp)
    419c:	da413c17 	ldw	r9,1264(sp)
    41a0:	1001001e 	bne	r2,zero,45a4 <___vfprintf_internal_r+0x11bc>
    41a4:	00800074 	movhi	r2,1
    41a8:	10806604 	addi	r2,r2,408
    41ac:	48800015 	stw	r2,0(r9)
    41b0:	00800044 	movi	r2,1
    41b4:	48800115 	stw	r2,4(r9)
    41b8:	4091883a 	add	r8,r8,r2
    41bc:	1887883a 	add	r3,r3,r2
    41c0:	da011d15 	stw	r8,1140(sp)
    41c4:	d8c11c15 	stw	r3,1136(sp)
    41c8:	008001c4 	movi	r2,7
    41cc:	10c1dd16 	blt	r2,r3,4944 <___vfprintf_internal_r+0x155c>
    41d0:	4a400204 	addi	r9,r9,8
    41d4:	d8812417 	ldw	r2,1168(sp)
    41d8:	d8c13217 	ldw	r3,1224(sp)
    41dc:	10c00216 	blt	r2,r3,41e8 <___vfprintf_internal_r+0xe00>
    41e0:	8080004c 	andi	r2,r16,1
    41e4:	103f6826 	beq	r2,zero,3f88 <___vfprintf_internal_r+0xba0>
    41e8:	d8c11c17 	ldw	r3,1136(sp)
    41ec:	d9013717 	ldw	r4,1244(sp)
    41f0:	00800044 	movi	r2,1
    41f4:	48800115 	stw	r2,4(r9)
    41f8:	49000015 	stw	r4,0(r9)
    41fc:	4091883a 	add	r8,r8,r2
    4200:	1887883a 	add	r3,r3,r2
    4204:	da011d15 	stw	r8,1140(sp)
    4208:	d8c11c15 	stw	r3,1136(sp)
    420c:	008001c4 	movi	r2,7
    4210:	10c2af16 	blt	r2,r3,4cd0 <___vfprintf_internal_r+0x18e8>
    4214:	4a400204 	addi	r9,r9,8
    4218:	d8813217 	ldw	r2,1224(sp)
    421c:	14bfffc4 	addi	r18,r2,-1
    4220:	04bf590e 	bge	zero,r18,3f88 <___vfprintf_internal_r+0xba0>
    4224:	04c00404 	movi	r19,16
    4228:	d8c11c17 	ldw	r3,1136(sp)
    422c:	05000074 	movhi	r20,1
    4230:	a5006a84 	addi	r20,r20,426
    4234:	9c81630e 	bge	r19,r18,47c4 <___vfprintf_internal_r+0x13dc>
    4238:	058001c4 	movi	r22,7
    423c:	ddc12917 	ldw	r23,1188(sp)
    4240:	00000306 	br	4250 <___vfprintf_internal_r+0xe68>
    4244:	4a400204 	addi	r9,r9,8
    4248:	94bffc04 	addi	r18,r18,-16
    424c:	9c815d0e 	bge	r19,r18,47c4 <___vfprintf_internal_r+0x13dc>
    4250:	4d000015 	stw	r20,0(r9)
    4254:	4cc00115 	stw	r19,4(r9)
    4258:	42000404 	addi	r8,r8,16
    425c:	18c00044 	addi	r3,r3,1
    4260:	da011d15 	stw	r8,1140(sp)
    4264:	d8c11c15 	stw	r3,1136(sp)
    4268:	b0fff60e 	bge	r22,r3,4244 <___vfprintf_internal_r+0xe5c>
    426c:	8809883a 	mov	r4,r17
    4270:	b80b883a 	mov	r5,r23
    4274:	d9811b04 	addi	r6,sp,1132
    4278:	00033b40 	call	33b4 <__sprint_r>
    427c:	103ded1e 	bne	r2,zero,3a34 <___vfprintf_internal_r+0x64c>
    4280:	da011d17 	ldw	r8,1140(sp)
    4284:	d8c11c17 	ldw	r3,1136(sp)
    4288:	da400404 	addi	r9,sp,16
    428c:	003fee06 	br	4248 <___vfprintf_internal_r+0xe60>
    4290:	d8812e17 	ldw	r2,1208(sp)
    4294:	d9012817 	ldw	r4,1184(sp)
    4298:	112fc83a 	sub	r23,r2,r4
    429c:	05ff000e 	bge	zero,r23,3ea0 <___vfprintf_internal_r+0xab8>
    42a0:	07000404 	movi	fp,16
    42a4:	05000074 	movhi	r20,1
    42a8:	a5006a84 	addi	r20,r20,426
    42ac:	e5c01d0e 	bge	fp,r23,4324 <___vfprintf_internal_r+0xf3c>
    42b0:	dc812a15 	stw	r18,1192(sp)
    42b4:	058001c4 	movi	r22,7
    42b8:	a025883a 	mov	r18,r20
    42bc:	8029883a 	mov	r20,r16
    42c0:	dc012917 	ldw	r16,1188(sp)
    42c4:	00000306 	br	42d4 <___vfprintf_internal_r+0xeec>
    42c8:	bdfffc04 	addi	r23,r23,-16
    42cc:	4a400204 	addi	r9,r9,8
    42d0:	e5c0110e 	bge	fp,r23,4318 <___vfprintf_internal_r+0xf30>
    42d4:	4c800015 	stw	r18,0(r9)
    42d8:	4f000115 	stw	fp,4(r9)
    42dc:	42000404 	addi	r8,r8,16
    42e0:	18c00044 	addi	r3,r3,1
    42e4:	da011d15 	stw	r8,1140(sp)
    42e8:	d8c11c15 	stw	r3,1136(sp)
    42ec:	b0fff60e 	bge	r22,r3,42c8 <___vfprintf_internal_r+0xee0>
    42f0:	8809883a 	mov	r4,r17
    42f4:	800b883a 	mov	r5,r16
    42f8:	d9811b04 	addi	r6,sp,1132
    42fc:	00033b40 	call	33b4 <__sprint_r>
    4300:	103dcc1e 	bne	r2,zero,3a34 <___vfprintf_internal_r+0x64c>
    4304:	bdfffc04 	addi	r23,r23,-16
    4308:	da011d17 	ldw	r8,1140(sp)
    430c:	d8c11c17 	ldw	r3,1136(sp)
    4310:	da400404 	addi	r9,sp,16
    4314:	e5ffef16 	blt	fp,r23,42d4 <___vfprintf_internal_r+0xeec>
    4318:	a021883a 	mov	r16,r20
    431c:	9029883a 	mov	r20,r18
    4320:	dc812a17 	ldw	r18,1192(sp)
    4324:	4d000015 	stw	r20,0(r9)
    4328:	4dc00115 	stw	r23,4(r9)
    432c:	45d1883a 	add	r8,r8,r23
    4330:	18c00044 	addi	r3,r3,1
    4334:	da011d15 	stw	r8,1140(sp)
    4338:	d8c11c15 	stw	r3,1136(sp)
    433c:	008001c4 	movi	r2,7
    4340:	10c11716 	blt	r2,r3,47a0 <___vfprintf_internal_r+0x13b8>
    4344:	4a400204 	addi	r9,r9,8
    4348:	003ed506 	br	3ea0 <___vfprintf_internal_r+0xab8>
    434c:	d9412917 	ldw	r5,1188(sp)
    4350:	8809883a 	mov	r4,r17
    4354:	d9811b04 	addi	r6,sp,1132
    4358:	00033b40 	call	33b4 <__sprint_r>
    435c:	103f4226 	beq	r2,zero,4068 <___vfprintf_internal_r+0xc80>
    4360:	003db406 	br	3a34 <___vfprintf_internal_r+0x64c>
    4364:	d9013217 	ldw	r4,1224(sp)
    4368:	00800044 	movi	r2,1
    436c:	4cc00015 	stw	r19,0(r9)
    4370:	1100e10e 	bge	r2,r4,46f8 <___vfprintf_internal_r+0x1310>
    4374:	00800044 	movi	r2,1
    4378:	48800115 	stw	r2,4(r9)
    437c:	4091883a 	add	r8,r8,r2
    4380:	1887883a 	add	r3,r3,r2
    4384:	da011d15 	stw	r8,1140(sp)
    4388:	d8c11c15 	stw	r3,1136(sp)
    438c:	008001c4 	movi	r2,7
    4390:	10c0ed16 	blt	r2,r3,4748 <___vfprintf_internal_r+0x1360>
    4394:	4a400204 	addi	r9,r9,8
    4398:	d8813717 	ldw	r2,1244(sp)
    439c:	48800015 	stw	r2,0(r9)
    43a0:	00800044 	movi	r2,1
    43a4:	48800115 	stw	r2,4(r9)
    43a8:	4091883a 	add	r8,r8,r2
    43ac:	1887883a 	add	r3,r3,r2
    43b0:	da011d15 	stw	r8,1140(sp)
    43b4:	d8c11c15 	stw	r3,1136(sp)
    43b8:	008001c4 	movi	r2,7
    43bc:	10c0eb16 	blt	r2,r3,476c <___vfprintf_internal_r+0x1384>
    43c0:	4c800204 	addi	r18,r9,8
    43c4:	d9013317 	ldw	r4,1228(sp)
    43c8:	d9413417 	ldw	r5,1232(sp)
    43cc:	000d883a 	mov	r6,zero
    43d0:	000f883a 	mov	r7,zero
    43d4:	d8c13b15 	stw	r3,1260(sp)
    43d8:	da013a15 	stw	r8,1256(sp)
    43dc:	000b67c0 	call	b67c <__nedf2>
    43e0:	d8c13b17 	ldw	r3,1260(sp)
    43e4:	da013a17 	ldw	r8,1256(sp)
    43e8:	1000a626 	beq	r2,zero,4684 <___vfprintf_internal_r+0x129c>
    43ec:	d9013217 	ldw	r4,1224(sp)
    43f0:	9cc00044 	addi	r19,r19,1
    43f4:	94c00015 	stw	r19,0(r18)
    43f8:	20bfffc4 	addi	r2,r4,-1
    43fc:	90800115 	stw	r2,4(r18)
    4400:	4091883a 	add	r8,r8,r2
    4404:	18c00044 	addi	r3,r3,1
    4408:	da011d15 	stw	r8,1140(sp)
    440c:	d8c11c15 	stw	r3,1136(sp)
    4410:	008001c4 	movi	r2,7
    4414:	10c0c316 	blt	r2,r3,4724 <___vfprintf_internal_r+0x133c>
    4418:	94800204 	addi	r18,r18,8
    441c:	d9013517 	ldw	r4,1236(sp)
    4420:	d8811fc4 	addi	r2,sp,1151
    4424:	90800015 	stw	r2,0(r18)
    4428:	91000115 	stw	r4,4(r18)
    442c:	4111883a 	add	r8,r8,r4
    4430:	18c00044 	addi	r3,r3,1
    4434:	da011d15 	stw	r8,1140(sp)
    4438:	d8c11c15 	stw	r3,1136(sp)
    443c:	008001c4 	movi	r2,7
    4440:	10ff2316 	blt	r2,r3,40d0 <___vfprintf_internal_r+0xce8>
    4444:	92400204 	addi	r9,r18,8
    4448:	003ecf06 	br	3f88 <___vfprintf_internal_r+0xba0>
    444c:	d9412917 	ldw	r5,1188(sp)
    4450:	8809883a 	mov	r4,r17
    4454:	d9811b04 	addi	r6,sp,1132
    4458:	00033b40 	call	33b4 <__sprint_r>
    445c:	103d751e 	bne	r2,zero,3a34 <___vfprintf_internal_r+0x64c>
    4460:	da011d17 	ldw	r8,1140(sp)
    4464:	d8c11c17 	ldw	r3,1136(sp)
    4468:	da400404 	addi	r9,sp,16
    446c:	003eba06 	br	3f58 <___vfprintf_internal_r+0xb70>
    4470:	d9412917 	ldw	r5,1188(sp)
    4474:	8809883a 	mov	r4,r17
    4478:	d9811b04 	addi	r6,sp,1132
    447c:	00033b40 	call	33b4 <__sprint_r>
    4480:	103d6c1e 	bne	r2,zero,3a34 <___vfprintf_internal_r+0x64c>
    4484:	da011d17 	ldw	r8,1140(sp)
    4488:	d8c11c17 	ldw	r3,1136(sp)
    448c:	da400404 	addi	r9,sp,16
    4490:	003e7306 	br	3e60 <___vfprintf_internal_r+0xa78>
    4494:	d9412917 	ldw	r5,1188(sp)
    4498:	8809883a 	mov	r4,r17
    449c:	d9811b04 	addi	r6,sp,1132
    44a0:	00033b40 	call	33b4 <__sprint_r>
    44a4:	103d631e 	bne	r2,zero,3a34 <___vfprintf_internal_r+0x64c>
    44a8:	da011d17 	ldw	r8,1140(sp)
    44ac:	d8c11c17 	ldw	r3,1136(sp)
    44b0:	da400404 	addi	r9,sp,16
    44b4:	003e7706 	br	3e94 <___vfprintf_internal_r+0xaac>
    44b8:	d8012b15 	stw	zero,1196(sp)
    44bc:	dcc10e04 	addi	r19,sp,1080
    44c0:	003cae06 	br	377c <___vfprintf_internal_r+0x394>
    44c4:	d9413617 	ldw	r5,1240(sp)
    44c8:	d8810dc4 	addi	r2,sp,1079
    44cc:	b8c003cc 	andi	r3,r23,15
    44d0:	b008973a 	slli	r4,r22,28
    44d4:	28c7883a 	add	r3,r5,r3
    44d8:	b82ed13a 	srli	r23,r23,4
    44dc:	18c00003 	ldbu	r3,0(r3)
    44e0:	b02cd13a 	srli	r22,r22,4
    44e4:	25eeb03a 	or	r23,r4,r23
    44e8:	10c00005 	stb	r3,0(r2)
    44ec:	bd86b03a 	or	r3,r23,r22
    44f0:	1027883a 	mov	r19,r2
    44f4:	10bfffc4 	addi	r2,r2,-1
    44f8:	183ff41e 	bne	r3,zero,44cc <___vfprintf_internal_r+0x10e4>
    44fc:	003f1706 	br	415c <___vfprintf_internal_r+0xd74>
    4500:	b0025826 	beq	r22,zero,4e64 <___vfprintf_internal_r+0x1a7c>
    4504:	b807883a 	mov	r3,r23
    4508:	d8810dc4 	addi	r2,sp,1079
    450c:	882f883a 	mov	r23,r17
    4510:	04c00244 	movi	r19,9
    4514:	8023883a 	mov	r17,r16
    4518:	da412815 	stw	r9,1184(sp)
    451c:	1821883a 	mov	r16,r3
    4520:	8009883a 	mov	r4,r16
    4524:	b00b883a 	mov	r5,r22
    4528:	01800284 	movi	r6,10
    452c:	000f883a 	mov	r7,zero
    4530:	1029883a 	mov	r20,r2
    4534:	000abfc0 	call	abfc <__umoddi3>
    4538:	10800c04 	addi	r2,r2,48
    453c:	8009883a 	mov	r4,r16
    4540:	b00b883a 	mov	r5,r22
    4544:	a0800005 	stb	r2,0(r20)
    4548:	01800284 	movi	r6,10
    454c:	000f883a 	mov	r7,zero
    4550:	000a6340 	call	a634 <__udivdi3>
    4554:	1021883a 	mov	r16,r2
    4558:	182d883a 	mov	r22,r3
    455c:	a0bfffc4 	addi	r2,r20,-1
    4560:	183fef1e 	bne	r3,zero,4520 <___vfprintf_internal_r+0x1138>
    4564:	9c3fee36 	bltu	r19,r16,4520 <___vfprintf_internal_r+0x1138>
    4568:	da412817 	ldw	r9,1184(sp)
    456c:	8005883a 	mov	r2,r16
    4570:	8821883a 	mov	r16,r17
    4574:	b823883a 	mov	r17,r23
    4578:	102f883a 	mov	r23,r2
    457c:	d8812717 	ldw	r2,1180(sp)
    4580:	a4ffffc4 	addi	r19,r20,-1
    4584:	bdc00c04 	addi	r23,r23,48
    4588:	14c5c83a 	sub	r2,r2,r19
    458c:	a5ffffc5 	stb	r23,-1(r20)
    4590:	d8812b15 	stw	r2,1196(sp)
    4594:	003c7906 	br	377c <___vfprintf_internal_r+0x394>
    4598:	00c00044 	movi	r3,1
    459c:	bd84b03a 	or	r2,r23,r22
    45a0:	003c6806 	br	3744 <___vfprintf_internal_r+0x35c>
    45a4:	dc812417 	ldw	r18,1168(sp)
    45a8:	0480ee0e 	bge	zero,r18,4964 <___vfprintf_internal_r+0x157c>
    45ac:	d9013217 	ldw	r4,1224(sp)
    45b0:	4cc00015 	stw	r19,0(r9)
    45b4:	9100c616 	blt	r18,r4,48d0 <___vfprintf_internal_r+0x14e8>
    45b8:	49000115 	stw	r4,4(r9)
    45bc:	4111883a 	add	r8,r8,r4
    45c0:	18c00044 	addi	r3,r3,1
    45c4:	da011d15 	stw	r8,1140(sp)
    45c8:	d8c11c15 	stw	r3,1136(sp)
    45cc:	008001c4 	movi	r2,7
    45d0:	10c20916 	blt	r2,r3,4df8 <___vfprintf_internal_r+0x1a10>
    45d4:	4a400204 	addi	r9,r9,8
    45d8:	d8813217 	ldw	r2,1224(sp)
    45dc:	90a5c83a 	sub	r18,r18,r2
    45e0:	04beae0e 	bge	zero,r18,409c <___vfprintf_internal_r+0xcb4>
    45e4:	04c00404 	movi	r19,16
    45e8:	d8c11c17 	ldw	r3,1136(sp)
    45ec:	05000074 	movhi	r20,1
    45f0:	a5006a84 	addi	r20,r20,426
    45f4:	9c81be0e 	bge	r19,r18,4cf0 <___vfprintf_internal_r+0x1908>
    45f8:	058001c4 	movi	r22,7
    45fc:	ddc12917 	ldw	r23,1188(sp)
    4600:	00000306 	br	4610 <___vfprintf_internal_r+0x1228>
    4604:	4a400204 	addi	r9,r9,8
    4608:	94bffc04 	addi	r18,r18,-16
    460c:	9c81b80e 	bge	r19,r18,4cf0 <___vfprintf_internal_r+0x1908>
    4610:	4d000015 	stw	r20,0(r9)
    4614:	4cc00115 	stw	r19,4(r9)
    4618:	42000404 	addi	r8,r8,16
    461c:	18c00044 	addi	r3,r3,1
    4620:	da011d15 	stw	r8,1140(sp)
    4624:	d8c11c15 	stw	r3,1136(sp)
    4628:	b0fff60e 	bge	r22,r3,4604 <___vfprintf_internal_r+0x121c>
    462c:	8809883a 	mov	r4,r17
    4630:	b80b883a 	mov	r5,r23
    4634:	d9811b04 	addi	r6,sp,1132
    4638:	00033b40 	call	33b4 <__sprint_r>
    463c:	103cfd1e 	bne	r2,zero,3a34 <___vfprintf_internal_r+0x64c>
    4640:	da011d17 	ldw	r8,1140(sp)
    4644:	d8c11c17 	ldw	r3,1136(sp)
    4648:	da400404 	addi	r9,sp,16
    464c:	003fee06 	br	4608 <___vfprintf_internal_r+0x1220>
    4650:	d9412917 	ldw	r5,1188(sp)
    4654:	8809883a 	mov	r4,r17
    4658:	d9811b04 	addi	r6,sp,1132
    465c:	00033b40 	call	33b4 <__sprint_r>
    4660:	103cf41e 	bne	r2,zero,3a34 <___vfprintf_internal_r+0x64c>
    4664:	da011d17 	ldw	r8,1140(sp)
    4668:	d8c11c17 	ldw	r3,1136(sp)
    466c:	da400404 	addi	r9,sp,16
    4670:	003dee06 	br	3e2c <___vfprintf_internal_r+0xa44>
    4674:	00c00084 	movi	r3,2
    4678:	bd84b03a 	or	r2,r23,r22
    467c:	d8012585 	stb	zero,1174(sp)
    4680:	003c3006 	br	3744 <___vfprintf_internal_r+0x35c>
    4684:	d8813217 	ldw	r2,1224(sp)
    4688:	14ffffc4 	addi	r19,r2,-1
    468c:	04ff630e 	bge	zero,r19,441c <___vfprintf_internal_r+0x1034>
    4690:	05800404 	movi	r22,16
    4694:	05000074 	movhi	r20,1
    4698:	a5006a84 	addi	r20,r20,426
    469c:	b4c03c0e 	bge	r22,r19,4790 <___vfprintf_internal_r+0x13a8>
    46a0:	05c001c4 	movi	r23,7
    46a4:	df012917 	ldw	fp,1188(sp)
    46a8:	00000306 	br	46b8 <___vfprintf_internal_r+0x12d0>
    46ac:	94800204 	addi	r18,r18,8
    46b0:	9cfffc04 	addi	r19,r19,-16
    46b4:	b4c0360e 	bge	r22,r19,4790 <___vfprintf_internal_r+0x13a8>
    46b8:	95000015 	stw	r20,0(r18)
    46bc:	95800115 	stw	r22,4(r18)
    46c0:	42000404 	addi	r8,r8,16
    46c4:	18c00044 	addi	r3,r3,1
    46c8:	da011d15 	stw	r8,1140(sp)
    46cc:	d8c11c15 	stw	r3,1136(sp)
    46d0:	b8fff60e 	bge	r23,r3,46ac <___vfprintf_internal_r+0x12c4>
    46d4:	8809883a 	mov	r4,r17
    46d8:	e00b883a 	mov	r5,fp
    46dc:	d9811b04 	addi	r6,sp,1132
    46e0:	00033b40 	call	33b4 <__sprint_r>
    46e4:	103cd31e 	bne	r2,zero,3a34 <___vfprintf_internal_r+0x64c>
    46e8:	da011d17 	ldw	r8,1140(sp)
    46ec:	d8c11c17 	ldw	r3,1136(sp)
    46f0:	dc800404 	addi	r18,sp,16
    46f4:	003fee06 	br	46b0 <___vfprintf_internal_r+0x12c8>
    46f8:	8088703a 	and	r4,r16,r2
    46fc:	203f1d1e 	bne	r4,zero,4374 <___vfprintf_internal_r+0xf8c>
    4700:	48800115 	stw	r2,4(r9)
    4704:	42000044 	addi	r8,r8,1
    4708:	18c00044 	addi	r3,r3,1
    470c:	da011d15 	stw	r8,1140(sp)
    4710:	d8c11c15 	stw	r3,1136(sp)
    4714:	008001c4 	movi	r2,7
    4718:	10c00216 	blt	r2,r3,4724 <___vfprintf_internal_r+0x133c>
    471c:	4c800204 	addi	r18,r9,8
    4720:	003f3e06 	br	441c <___vfprintf_internal_r+0x1034>
    4724:	d9412917 	ldw	r5,1188(sp)
    4728:	8809883a 	mov	r4,r17
    472c:	d9811b04 	addi	r6,sp,1132
    4730:	00033b40 	call	33b4 <__sprint_r>
    4734:	103cbf1e 	bne	r2,zero,3a34 <___vfprintf_internal_r+0x64c>
    4738:	dc800404 	addi	r18,sp,16
    473c:	da011d17 	ldw	r8,1140(sp)
    4740:	d8c11c17 	ldw	r3,1136(sp)
    4744:	003f3506 	br	441c <___vfprintf_internal_r+0x1034>
    4748:	d9412917 	ldw	r5,1188(sp)
    474c:	8809883a 	mov	r4,r17
    4750:	d9811b04 	addi	r6,sp,1132
    4754:	00033b40 	call	33b4 <__sprint_r>
    4758:	103cb61e 	bne	r2,zero,3a34 <___vfprintf_internal_r+0x64c>
    475c:	da011d17 	ldw	r8,1140(sp)
    4760:	d8c11c17 	ldw	r3,1136(sp)
    4764:	da400404 	addi	r9,sp,16
    4768:	003f0b06 	br	4398 <___vfprintf_internal_r+0xfb0>
    476c:	d9412917 	ldw	r5,1188(sp)
    4770:	8809883a 	mov	r4,r17
    4774:	d9811b04 	addi	r6,sp,1132
    4778:	00033b40 	call	33b4 <__sprint_r>
    477c:	103cad1e 	bne	r2,zero,3a34 <___vfprintf_internal_r+0x64c>
    4780:	da011d17 	ldw	r8,1140(sp)
    4784:	d8c11c17 	ldw	r3,1136(sp)
    4788:	dc800404 	addi	r18,sp,16
    478c:	003f0d06 	br	43c4 <___vfprintf_internal_r+0xfdc>
    4790:	95000015 	stw	r20,0(r18)
    4794:	94c00115 	stw	r19,4(r18)
    4798:	44d1883a 	add	r8,r8,r19
    479c:	003f1906 	br	4404 <___vfprintf_internal_r+0x101c>
    47a0:	d9412917 	ldw	r5,1188(sp)
    47a4:	8809883a 	mov	r4,r17
    47a8:	d9811b04 	addi	r6,sp,1132
    47ac:	00033b40 	call	33b4 <__sprint_r>
    47b0:	103ca01e 	bne	r2,zero,3a34 <___vfprintf_internal_r+0x64c>
    47b4:	da011d17 	ldw	r8,1140(sp)
    47b8:	d8c11c17 	ldw	r3,1136(sp)
    47bc:	da400404 	addi	r9,sp,16
    47c0:	003db706 	br	3ea0 <___vfprintf_internal_r+0xab8>
    47c4:	4d000015 	stw	r20,0(r9)
    47c8:	4c800115 	stw	r18,4(r9)
    47cc:	4491883a 	add	r8,r8,r18
    47d0:	003de706 	br	3f70 <___vfprintf_internal_r+0xb88>
    47d4:	8080100c 	andi	r2,r16,64
    47d8:	10010226 	beq	r2,zero,4be4 <___vfprintf_internal_r+0x17fc>
    47dc:	d8812d17 	ldw	r2,1204(sp)
    47e0:	002d883a 	mov	r22,zero
    47e4:	00c00044 	movi	r3,1
    47e8:	15c0000b 	ldhu	r23,0(r2)
    47ec:	10800104 	addi	r2,r2,4
    47f0:	d8812d15 	stw	r2,1204(sp)
    47f4:	d8012585 	stb	zero,1174(sp)
    47f8:	b805883a 	mov	r2,r23
    47fc:	003bd106 	br	3744 <___vfprintf_internal_r+0x35c>
    4800:	d9012d17 	ldw	r4,1204(sp)
    4804:	25800017 	ldw	r22,0(r4)
    4808:	25000117 	ldw	r20,4(r4)
    480c:	21000204 	addi	r4,r4,8
    4810:	d9012d15 	stw	r4,1204(sp)
    4814:	dd813315 	stw	r22,1228(sp)
    4818:	dd013415 	stw	r20,1232(sp)
    481c:	003d2b06 	br	3ccc <___vfprintf_internal_r+0x8e4>
    4820:	8080100c 	andi	r2,r16,64
    4824:	1000fe26 	beq	r2,zero,4c20 <___vfprintf_internal_r+0x1838>
    4828:	d9012d17 	ldw	r4,1204(sp)
    482c:	002d883a 	mov	r22,zero
    4830:	0007883a 	mov	r3,zero
    4834:	25c0000b 	ldhu	r23,0(r4)
    4838:	21000104 	addi	r4,r4,4
    483c:	d9012d15 	stw	r4,1204(sp)
    4840:	b805883a 	mov	r2,r23
    4844:	d8012585 	stb	zero,1174(sp)
    4848:	003bbe06 	br	3744 <___vfprintf_internal_r+0x35c>
    484c:	8080100c 	andi	r2,r16,64
    4850:	1000ed26 	beq	r2,zero,4c08 <___vfprintf_internal_r+0x1820>
    4854:	d9012d17 	ldw	r4,1204(sp)
    4858:	002d883a 	mov	r22,zero
    485c:	25c0000b 	ldhu	r23,0(r4)
    4860:	21000104 	addi	r4,r4,4
    4864:	d9012d15 	stw	r4,1204(sp)
    4868:	003cd206 	br	3bb4 <___vfprintf_internal_r+0x7cc>
    486c:	00c00084 	movi	r3,2
    4870:	d8012585 	stb	zero,1174(sp)
    4874:	003bb306 	br	3744 <___vfprintf_internal_r+0x35c>
    4878:	8080040c 	andi	r2,r16,16
    487c:	1000f11e 	bne	r2,zero,4c44 <___vfprintf_internal_r+0x185c>
    4880:	8400100c 	andi	r16,r16,64
    4884:	80015526 	beq	r16,zero,4ddc <___vfprintf_internal_r+0x19f4>
    4888:	da012d17 	ldw	r8,1204(sp)
    488c:	d8c12c17 	ldw	r3,1200(sp)
    4890:	40800017 	ldw	r2,0(r8)
    4894:	42000104 	addi	r8,r8,4
    4898:	da012d15 	stw	r8,1204(sp)
    489c:	10c0000d 	sth	r3,0(r2)
    48a0:	003b0706 	br	34c0 <___vfprintf_internal_r+0xd8>
    48a4:	8080100c 	andi	r2,r16,64
    48a8:	1000c726 	beq	r2,zero,4bc8 <___vfprintf_internal_r+0x17e0>
    48ac:	da012d17 	ldw	r8,1204(sp)
    48b0:	45c0000f 	ldh	r23,0(r8)
    48b4:	42000104 	addi	r8,r8,4
    48b8:	da012d15 	stw	r8,1204(sp)
    48bc:	b82dd7fa 	srai	r22,r23,31
    48c0:	b005883a 	mov	r2,r22
    48c4:	003c1006 	br	3908 <___vfprintf_internal_r+0x520>
    48c8:	ac800007 	ldb	r18,0(r21)
    48cc:	003b2406 	br	3560 <___vfprintf_internal_r+0x178>
    48d0:	4c800115 	stw	r18,4(r9)
    48d4:	9211883a 	add	r8,r18,r8
    48d8:	18c00044 	addi	r3,r3,1
    48dc:	da011d15 	stw	r8,1140(sp)
    48e0:	d8c11c15 	stw	r3,1136(sp)
    48e4:	008001c4 	movi	r2,7
    48e8:	10c15416 	blt	r2,r3,4e3c <___vfprintf_internal_r+0x1a54>
    48ec:	4a400204 	addi	r9,r9,8
    48f0:	d8813717 	ldw	r2,1244(sp)
    48f4:	9ca7883a 	add	r19,r19,r18
    48f8:	48800015 	stw	r2,0(r9)
    48fc:	00800044 	movi	r2,1
    4900:	48800115 	stw	r2,4(r9)
    4904:	4091883a 	add	r8,r8,r2
    4908:	1887883a 	add	r3,r3,r2
    490c:	da011d15 	stw	r8,1140(sp)
    4910:	d8c11c15 	stw	r3,1136(sp)
    4914:	008001c4 	movi	r2,7
    4918:	10c14016 	blt	r2,r3,4e1c <___vfprintf_internal_r+0x1a34>
    491c:	4a400204 	addi	r9,r9,8
    4920:	d9013217 	ldw	r4,1224(sp)
    4924:	da011d17 	ldw	r8,1140(sp)
    4928:	d8c11c17 	ldw	r3,1136(sp)
    492c:	24a5c83a 	sub	r18,r4,r18
    4930:	4cc00015 	stw	r19,0(r9)
    4934:	003fa406 	br	47c8 <___vfprintf_internal_r+0x13e0>
    4938:	04c00074 	movhi	r19,1
    493c:	9cc05704 	addi	r19,r19,348
    4940:	003cf406 	br	3d14 <___vfprintf_internal_r+0x92c>
    4944:	d9412917 	ldw	r5,1188(sp)
    4948:	8809883a 	mov	r4,r17
    494c:	d9811b04 	addi	r6,sp,1132
    4950:	00033b40 	call	33b4 <__sprint_r>
    4954:	103c371e 	bne	r2,zero,3a34 <___vfprintf_internal_r+0x64c>
    4958:	da011d17 	ldw	r8,1140(sp)
    495c:	da400404 	addi	r9,sp,16
    4960:	003e1c06 	br	41d4 <___vfprintf_internal_r+0xdec>
    4964:	00800074 	movhi	r2,1
    4968:	10806604 	addi	r2,r2,408
    496c:	48800015 	stw	r2,0(r9)
    4970:	00800044 	movi	r2,1
    4974:	48800115 	stw	r2,4(r9)
    4978:	4091883a 	add	r8,r8,r2
    497c:	1887883a 	add	r3,r3,r2
    4980:	da011d15 	stw	r8,1140(sp)
    4984:	d8c11c15 	stw	r3,1136(sp)
    4988:	008001c4 	movi	r2,7
    498c:	10c0c316 	blt	r2,r3,4c9c <___vfprintf_internal_r+0x18b4>
    4990:	4a400204 	addi	r9,r9,8
    4994:	9000041e 	bne	r18,zero,49a8 <___vfprintf_internal_r+0x15c0>
    4998:	d8c13217 	ldw	r3,1224(sp)
    499c:	1800021e 	bne	r3,zero,49a8 <___vfprintf_internal_r+0x15c0>
    49a0:	8080004c 	andi	r2,r16,1
    49a4:	103d7826 	beq	r2,zero,3f88 <___vfprintf_internal_r+0xba0>
    49a8:	d8c11c17 	ldw	r3,1136(sp)
    49ac:	d9013717 	ldw	r4,1244(sp)
    49b0:	00800044 	movi	r2,1
    49b4:	48800115 	stw	r2,4(r9)
    49b8:	49000015 	stw	r4,0(r9)
    49bc:	4091883a 	add	r8,r8,r2
    49c0:	1887883a 	add	r3,r3,r2
    49c4:	da011d15 	stw	r8,1140(sp)
    49c8:	d8c11c15 	stw	r3,1136(sp)
    49cc:	008001c4 	movi	r2,7
    49d0:	10c12e16 	blt	r2,r3,4e8c <___vfprintf_internal_r+0x1aa4>
    49d4:	4a400204 	addi	r9,r9,8
    49d8:	04a5c83a 	sub	r18,zero,r18
    49dc:	0480de0e 	bge	zero,r18,4d58 <___vfprintf_internal_r+0x1970>
    49e0:	05800404 	movi	r22,16
    49e4:	05000074 	movhi	r20,1
    49e8:	a5006a84 	addi	r20,r20,426
    49ec:	b480e20e 	bge	r22,r18,4d78 <___vfprintf_internal_r+0x1990>
    49f0:	05c001c4 	movi	r23,7
    49f4:	df012917 	ldw	fp,1188(sp)
    49f8:	00000306 	br	4a08 <___vfprintf_internal_r+0x1620>
    49fc:	4a400204 	addi	r9,r9,8
    4a00:	94bffc04 	addi	r18,r18,-16
    4a04:	b480dc0e 	bge	r22,r18,4d78 <___vfprintf_internal_r+0x1990>
    4a08:	4d000015 	stw	r20,0(r9)
    4a0c:	4d800115 	stw	r22,4(r9)
    4a10:	42000404 	addi	r8,r8,16
    4a14:	18c00044 	addi	r3,r3,1
    4a18:	da011d15 	stw	r8,1140(sp)
    4a1c:	d8c11c15 	stw	r3,1136(sp)
    4a20:	b8fff60e 	bge	r23,r3,49fc <___vfprintf_internal_r+0x1614>
    4a24:	8809883a 	mov	r4,r17
    4a28:	e00b883a 	mov	r5,fp
    4a2c:	d9811b04 	addi	r6,sp,1132
    4a30:	00033b40 	call	33b4 <__sprint_r>
    4a34:	103bff1e 	bne	r2,zero,3a34 <___vfprintf_internal_r+0x64c>
    4a38:	da011d17 	ldw	r8,1140(sp)
    4a3c:	d8c11c17 	ldw	r3,1136(sp)
    4a40:	da400404 	addi	r9,sp,16
    4a44:	003fee06 	br	4a00 <___vfprintf_internal_r+0x1618>
    4a48:	da413c15 	stw	r9,1264(sp)
    4a4c:	0009eb40 	call	9eb4 <__isnand>
    4a50:	da413c17 	ldw	r9,1264(sp)
    4a54:	1000851e 	bne	r2,zero,4c6c <___vfprintf_internal_r+0x1884>
    4a58:	00bfffc4 	movi	r2,-1
    4a5c:	e0817626 	beq	fp,r2,5038 <___vfprintf_internal_r+0x1c50>
    4a60:	008019c4 	movi	r2,103
    4a64:	90817126 	beq	r18,r2,502c <___vfprintf_internal_r+0x1c44>
    4a68:	008011c4 	movi	r2,71
    4a6c:	90816f26 	beq	r18,r2,502c <___vfprintf_internal_r+0x1c44>
    4a70:	82004014 	ori	r8,r16,256
    4a74:	da012a15 	stw	r8,1192(sp)
    4a78:	a0017116 	blt	r20,zero,5040 <___vfprintf_internal_r+0x1c58>
    4a7c:	d8012f05 	stb	zero,1212(sp)
    4a80:	00801984 	movi	r2,102
    4a84:	90811226 	beq	r18,r2,4ed0 <___vfprintf_internal_r+0x1ae8>
    4a88:	00801184 	movi	r2,70
    4a8c:	90811026 	beq	r18,r2,4ed0 <___vfprintf_internal_r+0x1ae8>
    4a90:	00801944 	movi	r2,101
    4a94:	90819b26 	beq	r18,r2,5104 <___vfprintf_internal_r+0x1d1c>
    4a98:	00801144 	movi	r2,69
    4a9c:	90819926 	beq	r18,r2,5104 <___vfprintf_internal_r+0x1d1c>
    4aa0:	e02f883a 	mov	r23,fp
    4aa4:	d8812404 	addi	r2,sp,1168
    4aa8:	d8800115 	stw	r2,4(sp)
    4aac:	d8812304 	addi	r2,sp,1164
    4ab0:	d8800215 	stw	r2,8(sp)
    4ab4:	d8812204 	addi	r2,sp,1160
    4ab8:	ddc00015 	stw	r23,0(sp)
    4abc:	d8800315 	stw	r2,12(sp)
    4ac0:	8809883a 	mov	r4,r17
    4ac4:	b00b883a 	mov	r5,r22
    4ac8:	a00d883a 	mov	r6,r20
    4acc:	01c00084 	movi	r7,2
    4ad0:	da413c15 	stw	r9,1264(sp)
    4ad4:	00055800 	call	5580 <_dtoa_r>
    4ad8:	1027883a 	mov	r19,r2
    4adc:	008019c4 	movi	r2,103
    4ae0:	da413c17 	ldw	r9,1264(sp)
    4ae4:	90818c1e 	bne	r18,r2,5118 <___vfprintf_internal_r+0x1d30>
    4ae8:	8080004c 	andi	r2,r16,1
    4aec:	10017926 	beq	r2,zero,50d4 <___vfprintf_internal_r+0x1cec>
    4af0:	00801184 	movi	r2,70
    4af4:	9dc7883a 	add	r3,r19,r23
    4af8:	90810626 	beq	r18,r2,4f14 <___vfprintf_internal_r+0x1b2c>
    4afc:	b009883a 	mov	r4,r22
    4b00:	a00b883a 	mov	r5,r20
    4b04:	000d883a 	mov	r6,zero
    4b08:	000f883a 	mov	r7,zero
    4b0c:	d8c13b15 	stw	r3,1260(sp)
    4b10:	da413c15 	stw	r9,1264(sp)
    4b14:	000b6200 	call	b620 <__eqdf2>
    4b18:	d8c13b17 	ldw	r3,1260(sp)
    4b1c:	da413c17 	ldw	r9,1264(sp)
    4b20:	10000726 	beq	r2,zero,4b40 <___vfprintf_internal_r+0x1758>
    4b24:	d8812217 	ldw	r2,1160(sp)
    4b28:	10c1962e 	bgeu	r2,r3,5184 <___vfprintf_internal_r+0x1d9c>
    4b2c:	01000c04 	movi	r4,48
    4b30:	11000005 	stb	r4,0(r2)
    4b34:	10800044 	addi	r2,r2,1
    4b38:	d8812215 	stw	r2,1160(sp)
    4b3c:	10fffc1e 	bne	r2,r3,4b30 <___vfprintf_internal_r+0x1748>
    4b40:	1cc7c83a 	sub	r3,r3,r19
    4b44:	d8c13215 	stw	r3,1224(sp)
    4b48:	008019c4 	movi	r2,103
    4b4c:	90810626 	beq	r18,r2,4f68 <___vfprintf_internal_r+0x1b80>
    4b50:	008011c4 	movi	r2,71
    4b54:	90810426 	beq	r18,r2,4f68 <___vfprintf_internal_r+0x1b80>
    4b58:	00801984 	movi	r2,102
    4b5c:	90819a1e 	bne	r18,r2,51c8 <___vfprintf_internal_r+0x1de0>
    4b60:	d8812417 	ldw	r2,1168(sp)
    4b64:	d8812b15 	stw	r2,1196(sp)
    4b68:	0081880e 	bge	zero,r2,518c <___vfprintf_internal_r+0x1da4>
    4b6c:	e000021e 	bne	fp,zero,4b78 <___vfprintf_internal_r+0x1790>
    4b70:	8400004c 	andi	r16,r16,1
    4b74:	80000426 	beq	r16,zero,4b88 <___vfprintf_internal_r+0x17a0>
    4b78:	d8812b17 	ldw	r2,1196(sp)
    4b7c:	e2000044 	addi	r8,fp,1
    4b80:	1205883a 	add	r2,r2,r8
    4b84:	d8812b15 	stw	r2,1196(sp)
    4b88:	d8812815 	stw	r2,1184(sp)
    4b8c:	10011716 	blt	r2,zero,4fec <___vfprintf_internal_r+0x1c04>
    4b90:	ddc12f07 	ldb	r23,1212(sp)
    4b94:	b800ca26 	beq	r23,zero,4ec0 <___vfprintf_internal_r+0x1ad8>
    4b98:	00800b44 	movi	r2,45
    4b9c:	d8812585 	stb	r2,1174(sp)
    4ba0:	dc012a17 	ldw	r16,1192(sp)
    4ba4:	d8013115 	stw	zero,1220(sp)
    4ba8:	003afe06 	br	37a4 <___vfprintf_internal_r+0x3bc>
    4bac:	d8812b17 	ldw	r2,1196(sp)
    4bb0:	d8812815 	stw	r2,1184(sp)
    4bb4:	10005e16 	blt	r2,zero,4d30 <___vfprintf_internal_r+0x1948>
    4bb8:	d8812583 	ldbu	r2,1174(sp)
    4bbc:	ddc12d15 	stw	r23,1204(sp)
    4bc0:	d8013115 	stw	zero,1220(sp)
    4bc4:	003af306 	br	3794 <___vfprintf_internal_r+0x3ac>
    4bc8:	d8812d17 	ldw	r2,1204(sp)
    4bcc:	15c00017 	ldw	r23,0(r2)
    4bd0:	10800104 	addi	r2,r2,4
    4bd4:	d8812d15 	stw	r2,1204(sp)
    4bd8:	b82dd7fa 	srai	r22,r23,31
    4bdc:	b005883a 	mov	r2,r22
    4be0:	003b4906 	br	3908 <___vfprintf_internal_r+0x520>
    4be4:	d8c12d17 	ldw	r3,1204(sp)
    4be8:	002d883a 	mov	r22,zero
    4bec:	1dc00017 	ldw	r23,0(r3)
    4bf0:	18c00104 	addi	r3,r3,4
    4bf4:	d8c12d15 	stw	r3,1204(sp)
    4bf8:	b805883a 	mov	r2,r23
    4bfc:	00c00044 	movi	r3,1
    4c00:	d8012585 	stb	zero,1174(sp)
    4c04:	003acf06 	br	3744 <___vfprintf_internal_r+0x35c>
    4c08:	da012d17 	ldw	r8,1204(sp)
    4c0c:	002d883a 	mov	r22,zero
    4c10:	45c00017 	ldw	r23,0(r8)
    4c14:	42000104 	addi	r8,r8,4
    4c18:	da012d15 	stw	r8,1204(sp)
    4c1c:	003be506 	br	3bb4 <___vfprintf_internal_r+0x7cc>
    4c20:	da012d17 	ldw	r8,1204(sp)
    4c24:	002d883a 	mov	r22,zero
    4c28:	0007883a 	mov	r3,zero
    4c2c:	45c00017 	ldw	r23,0(r8)
    4c30:	42000104 	addi	r8,r8,4
    4c34:	da012d15 	stw	r8,1204(sp)
    4c38:	b805883a 	mov	r2,r23
    4c3c:	d8012585 	stb	zero,1174(sp)
    4c40:	003ac006 	br	3744 <___vfprintf_internal_r+0x35c>
    4c44:	d8c12d17 	ldw	r3,1204(sp)
    4c48:	d9012c17 	ldw	r4,1200(sp)
    4c4c:	18800017 	ldw	r2,0(r3)
    4c50:	18c00104 	addi	r3,r3,4
    4c54:	d8c12d15 	stw	r3,1204(sp)
    4c58:	11000015 	stw	r4,0(r2)
    4c5c:	003a1806 	br	34c0 <___vfprintf_internal_r+0xd8>
    4c60:	073fffc4 	movi	fp,-1
    4c64:	202b883a 	mov	r21,r4
    4c68:	003a3e06 	br	3564 <___vfprintf_internal_r+0x17c>
    4c6c:	008011c4 	movi	r2,71
    4c70:	14809016 	blt	r2,r18,4eb4 <___vfprintf_internal_r+0x1acc>
    4c74:	04c00074 	movhi	r19,1
    4c78:	9cc05804 	addi	r19,r19,352
    4c7c:	00c000c4 	movi	r3,3
    4c80:	00bfdfc4 	movi	r2,-129
    4c84:	80a0703a 	and	r16,r16,r2
    4c88:	d8c12815 	stw	r3,1184(sp)
    4c8c:	d8812583 	ldbu	r2,1174(sp)
    4c90:	d8c12b15 	stw	r3,1196(sp)
    4c94:	d8013115 	stw	zero,1220(sp)
    4c98:	003abe06 	br	3794 <___vfprintf_internal_r+0x3ac>
    4c9c:	d9412917 	ldw	r5,1188(sp)
    4ca0:	8809883a 	mov	r4,r17
    4ca4:	d9811b04 	addi	r6,sp,1132
    4ca8:	00033b40 	call	33b4 <__sprint_r>
    4cac:	103b611e 	bne	r2,zero,3a34 <___vfprintf_internal_r+0x64c>
    4cb0:	dc812417 	ldw	r18,1168(sp)
    4cb4:	da011d17 	ldw	r8,1140(sp)
    4cb8:	da400404 	addi	r9,sp,16
    4cbc:	003f3506 	br	4994 <___vfprintf_internal_r+0x15ac>
    4cc0:	ad400044 	addi	r21,r21,1
    4cc4:	84000814 	ori	r16,r16,32
    4cc8:	14800047 	ldb	r18,1(r2)
    4ccc:	003a2406 	br	3560 <___vfprintf_internal_r+0x178>
    4cd0:	d9412917 	ldw	r5,1188(sp)
    4cd4:	8809883a 	mov	r4,r17
    4cd8:	d9811b04 	addi	r6,sp,1132
    4cdc:	00033b40 	call	33b4 <__sprint_r>
    4ce0:	103b541e 	bne	r2,zero,3a34 <___vfprintf_internal_r+0x64c>
    4ce4:	da011d17 	ldw	r8,1140(sp)
    4ce8:	da400404 	addi	r9,sp,16
    4cec:	003d4a06 	br	4218 <___vfprintf_internal_r+0xe30>
    4cf0:	4d000015 	stw	r20,0(r9)
    4cf4:	4c800115 	stw	r18,4(r9)
    4cf8:	4491883a 	add	r8,r8,r18
    4cfc:	18c00044 	addi	r3,r3,1
    4d00:	da011d15 	stw	r8,1140(sp)
    4d04:	d8c11c15 	stw	r3,1136(sp)
    4d08:	008001c4 	movi	r2,7
    4d0c:	10fcdc16 	blt	r2,r3,4080 <___vfprintf_internal_r+0xc98>
    4d10:	4a400204 	addi	r9,r9,8
    4d14:	003ce106 	br	409c <___vfprintf_internal_r+0xcb4>
    4d18:	da413c15 	stw	r9,1264(sp)
    4d1c:	000a1280 	call	a128 <strlen>
    4d20:	d8812b15 	stw	r2,1196(sp)
    4d24:	d8812815 	stw	r2,1184(sp)
    4d28:	da413c17 	ldw	r9,1264(sp)
    4d2c:	103fa20e 	bge	r2,zero,4bb8 <___vfprintf_internal_r+0x17d0>
    4d30:	d8012815 	stw	zero,1184(sp)
    4d34:	003fa006 	br	4bb8 <___vfprintf_internal_r+0x17d0>
    4d38:	d9412917 	ldw	r5,1188(sp)
    4d3c:	8809883a 	mov	r4,r17
    4d40:	d9811b04 	addi	r6,sp,1132
    4d44:	00033b40 	call	33b4 <__sprint_r>
    4d48:	103b3a1e 	bne	r2,zero,3a34 <___vfprintf_internal_r+0x64c>
    4d4c:	da011d17 	ldw	r8,1140(sp)
    4d50:	d8c11c17 	ldw	r3,1136(sp)
    4d54:	da400404 	addi	r9,sp,16
    4d58:	d8813217 	ldw	r2,1224(sp)
    4d5c:	4cc00015 	stw	r19,0(r9)
    4d60:	48800115 	stw	r2,4(r9)
    4d64:	4091883a 	add	r8,r8,r2
    4d68:	003c8106 	br	3f70 <___vfprintf_internal_r+0xb88>
    4d6c:	00800b44 	movi	r2,45
    4d70:	d8812585 	stb	r2,1174(sp)
    4d74:	003be306 	br	3d04 <___vfprintf_internal_r+0x91c>
    4d78:	4d000015 	stw	r20,0(r9)
    4d7c:	4c800115 	stw	r18,4(r9)
    4d80:	4491883a 	add	r8,r8,r18
    4d84:	18c00044 	addi	r3,r3,1
    4d88:	da011d15 	stw	r8,1140(sp)
    4d8c:	d8c11c15 	stw	r3,1136(sp)
    4d90:	008001c4 	movi	r2,7
    4d94:	10ffe816 	blt	r2,r3,4d38 <___vfprintf_internal_r+0x1950>
    4d98:	4a400204 	addi	r9,r9,8
    4d9c:	003fee06 	br	4d58 <___vfprintf_internal_r+0x1970>
    4da0:	df012b15 	stw	fp,1196(sp)
    4da4:	00800184 	movi	r2,6
    4da8:	1700072e 	bgeu	r2,fp,4dc8 <___vfprintf_internal_r+0x19e0>
    4dac:	d8812b15 	stw	r2,1196(sp)
    4db0:	d8812815 	stw	r2,1184(sp)
    4db4:	ddc12d15 	stw	r23,1204(sp)
    4db8:	04c00074 	movhi	r19,1
    4dbc:	9cc06404 	addi	r19,r19,400
    4dc0:	d8013115 	stw	zero,1220(sp)
    4dc4:	003a7a06 	br	37b0 <___vfprintf_internal_r+0x3c8>
    4dc8:	d8812b17 	ldw	r2,1196(sp)
    4dcc:	d8812815 	stw	r2,1184(sp)
    4dd0:	103ff80e 	bge	r2,zero,4db4 <___vfprintf_internal_r+0x19cc>
    4dd4:	d8012815 	stw	zero,1184(sp)
    4dd8:	003ff606 	br	4db4 <___vfprintf_internal_r+0x19cc>
    4ddc:	d9012d17 	ldw	r4,1204(sp)
    4de0:	da012c17 	ldw	r8,1200(sp)
    4de4:	20800017 	ldw	r2,0(r4)
    4de8:	21000104 	addi	r4,r4,4
    4dec:	d9012d15 	stw	r4,1204(sp)
    4df0:	12000015 	stw	r8,0(r2)
    4df4:	0039b206 	br	34c0 <___vfprintf_internal_r+0xd8>
    4df8:	d9412917 	ldw	r5,1188(sp)
    4dfc:	8809883a 	mov	r4,r17
    4e00:	d9811b04 	addi	r6,sp,1132
    4e04:	00033b40 	call	33b4 <__sprint_r>
    4e08:	103b0a1e 	bne	r2,zero,3a34 <___vfprintf_internal_r+0x64c>
    4e0c:	dc812417 	ldw	r18,1168(sp)
    4e10:	da011d17 	ldw	r8,1140(sp)
    4e14:	da400404 	addi	r9,sp,16
    4e18:	003def06 	br	45d8 <___vfprintf_internal_r+0x11f0>
    4e1c:	d9412917 	ldw	r5,1188(sp)
    4e20:	8809883a 	mov	r4,r17
    4e24:	d9811b04 	addi	r6,sp,1132
    4e28:	00033b40 	call	33b4 <__sprint_r>
    4e2c:	103b011e 	bne	r2,zero,3a34 <___vfprintf_internal_r+0x64c>
    4e30:	dc812417 	ldw	r18,1168(sp)
    4e34:	da400404 	addi	r9,sp,16
    4e38:	003eb906 	br	4920 <___vfprintf_internal_r+0x1538>
    4e3c:	d9412917 	ldw	r5,1188(sp)
    4e40:	8809883a 	mov	r4,r17
    4e44:	d9811b04 	addi	r6,sp,1132
    4e48:	00033b40 	call	33b4 <__sprint_r>
    4e4c:	103af91e 	bne	r2,zero,3a34 <___vfprintf_internal_r+0x64c>
    4e50:	dc812417 	ldw	r18,1168(sp)
    4e54:	da011d17 	ldw	r8,1140(sp)
    4e58:	d8c11c17 	ldw	r3,1136(sp)
    4e5c:	da400404 	addi	r9,sp,16
    4e60:	003ea306 	br	48f0 <___vfprintf_internal_r+0x1508>
    4e64:	00800244 	movi	r2,9
    4e68:	15fda636 	bltu	r2,r23,4504 <___vfprintf_internal_r+0x111c>
    4e6c:	dd010e04 	addi	r20,sp,1080
    4e70:	003dc206 	br	457c <___vfprintf_internal_r+0x1194>
    4e74:	df012815 	stw	fp,1184(sp)
    4e78:	d8812583 	ldbu	r2,1174(sp)
    4e7c:	df012b15 	stw	fp,1196(sp)
    4e80:	ddc12d15 	stw	r23,1204(sp)
    4e84:	d8013115 	stw	zero,1220(sp)
    4e88:	003a4206 	br	3794 <___vfprintf_internal_r+0x3ac>
    4e8c:	d9412917 	ldw	r5,1188(sp)
    4e90:	8809883a 	mov	r4,r17
    4e94:	d9811b04 	addi	r6,sp,1132
    4e98:	00033b40 	call	33b4 <__sprint_r>
    4e9c:	103ae51e 	bne	r2,zero,3a34 <___vfprintf_internal_r+0x64c>
    4ea0:	dc812417 	ldw	r18,1168(sp)
    4ea4:	da011d17 	ldw	r8,1140(sp)
    4ea8:	d8c11c17 	ldw	r3,1136(sp)
    4eac:	da400404 	addi	r9,sp,16
    4eb0:	003ec906 	br	49d8 <___vfprintf_internal_r+0x15f0>
    4eb4:	04c00074 	movhi	r19,1
    4eb8:	9cc05904 	addi	r19,r19,356
    4ebc:	003f6f06 	br	4c7c <___vfprintf_internal_r+0x1894>
    4ec0:	d8812583 	ldbu	r2,1174(sp)
    4ec4:	dc012a17 	ldw	r16,1192(sp)
    4ec8:	d8013115 	stw	zero,1220(sp)
    4ecc:	003a3106 	br	3794 <___vfprintf_internal_r+0x3ac>
    4ed0:	d8812404 	addi	r2,sp,1168
    4ed4:	d8800115 	stw	r2,4(sp)
    4ed8:	d8812304 	addi	r2,sp,1164
    4edc:	d8800215 	stw	r2,8(sp)
    4ee0:	d8812204 	addi	r2,sp,1160
    4ee4:	df000015 	stw	fp,0(sp)
    4ee8:	d8800315 	stw	r2,12(sp)
    4eec:	8809883a 	mov	r4,r17
    4ef0:	b00b883a 	mov	r5,r22
    4ef4:	a00d883a 	mov	r6,r20
    4ef8:	01c000c4 	movi	r7,3
    4efc:	da413c15 	stw	r9,1264(sp)
    4f00:	00055800 	call	5580 <_dtoa_r>
    4f04:	da413c17 	ldw	r9,1264(sp)
    4f08:	1027883a 	mov	r19,r2
    4f0c:	1707883a 	add	r3,r2,fp
    4f10:	e02f883a 	mov	r23,fp
    4f14:	99000007 	ldb	r4,0(r19)
    4f18:	00800c04 	movi	r2,48
    4f1c:	20800326 	beq	r4,r2,4f2c <___vfprintf_internal_r+0x1b44>
    4f20:	da812417 	ldw	r10,1168(sp)
    4f24:	1a87883a 	add	r3,r3,r10
    4f28:	003ef406 	br	4afc <___vfprintf_internal_r+0x1714>
    4f2c:	b009883a 	mov	r4,r22
    4f30:	a00b883a 	mov	r5,r20
    4f34:	000d883a 	mov	r6,zero
    4f38:	000f883a 	mov	r7,zero
    4f3c:	d8c13b15 	stw	r3,1260(sp)
    4f40:	da413c15 	stw	r9,1264(sp)
    4f44:	000b67c0 	call	b67c <__nedf2>
    4f48:	d8c13b17 	ldw	r3,1260(sp)
    4f4c:	da413c17 	ldw	r9,1264(sp)
    4f50:	103ff326 	beq	r2,zero,4f20 <___vfprintf_internal_r+0x1b38>
    4f54:	00800044 	movi	r2,1
    4f58:	15d5c83a 	sub	r10,r2,r23
    4f5c:	da812415 	stw	r10,1168(sp)
    4f60:	1a87883a 	add	r3,r3,r10
    4f64:	003ee506 	br	4afc <___vfprintf_internal_r+0x1714>
    4f68:	d8812417 	ldw	r2,1168(sp)
    4f6c:	d8812b15 	stw	r2,1196(sp)
    4f70:	1029883a 	mov	r20,r2
    4f74:	00bfff44 	movi	r2,-3
    4f78:	a0800116 	blt	r20,r2,4f80 <___vfprintf_internal_r+0x1b98>
    4f7c:	e5001d0e 	bge	fp,r20,4ff4 <___vfprintf_internal_r+0x1c0c>
    4f80:	94bfff84 	addi	r18,r18,-2
    4f84:	a53fffc4 	addi	r20,r20,-1
    4f88:	dd012415 	stw	r20,1168(sp)
    4f8c:	dc811fc5 	stb	r18,1151(sp)
    4f90:	a0007816 	blt	r20,zero,5174 <___vfprintf_internal_r+0x1d8c>
    4f94:	00800ac4 	movi	r2,43
    4f98:	d8812005 	stb	r2,1152(sp)
    4f9c:	00800244 	movi	r2,9
    4fa0:	15002b16 	blt	r2,r20,5050 <___vfprintf_internal_r+0x1c68>
    4fa4:	00800c04 	movi	r2,48
    4fa8:	a5000c04 	addi	r20,r20,48
    4fac:	d8812045 	stb	r2,1153(sp)
    4fb0:	dd012085 	stb	r20,1154(sp)
    4fb4:	d8c120c4 	addi	r3,sp,1155
    4fb8:	d8811fc4 	addi	r2,sp,1151
    4fbc:	da013217 	ldw	r8,1224(sp)
    4fc0:	1885c83a 	sub	r2,r3,r2
    4fc4:	d8813515 	stw	r2,1236(sp)
    4fc8:	4085883a 	add	r2,r8,r2
    4fcc:	d8812b15 	stw	r2,1196(sp)
    4fd0:	00800044 	movi	r2,1
    4fd4:	1200610e 	bge	r2,r8,515c <___vfprintf_internal_r+0x1d74>
    4fd8:	d8812b17 	ldw	r2,1196(sp)
    4fdc:	10800044 	addi	r2,r2,1
    4fe0:	d8812b15 	stw	r2,1196(sp)
    4fe4:	d8812815 	stw	r2,1184(sp)
    4fe8:	103ee90e 	bge	r2,zero,4b90 <___vfprintf_internal_r+0x17a8>
    4fec:	d8012815 	stw	zero,1184(sp)
    4ff0:	003ee706 	br	4b90 <___vfprintf_internal_r+0x17a8>
    4ff4:	d8812b17 	ldw	r2,1196(sp)
    4ff8:	da013217 	ldw	r8,1224(sp)
    4ffc:	12003716 	blt	r2,r8,50dc <___vfprintf_internal_r+0x1cf4>
    5000:	8400004c 	andi	r16,r16,1
    5004:	80000326 	beq	r16,zero,5014 <___vfprintf_internal_r+0x1c2c>
    5008:	d8812b17 	ldw	r2,1196(sp)
    500c:	10800044 	addi	r2,r2,1
    5010:	d8812b15 	stw	r2,1196(sp)
    5014:	d8812815 	stw	r2,1184(sp)
    5018:	10003716 	blt	r2,zero,50f8 <___vfprintf_internal_r+0x1d10>
    501c:	048019c4 	movi	r18,103
    5020:	003edb06 	br	4b90 <___vfprintf_internal_r+0x17a8>
    5024:	d8012815 	stw	zero,1184(sp)
    5028:	003b6906 	br	3dd0 <___vfprintf_internal_r+0x9e8>
    502c:	e03e901e 	bne	fp,zero,4a70 <___vfprintf_internal_r+0x1688>
    5030:	07000044 	movi	fp,1
    5034:	003e8e06 	br	4a70 <___vfprintf_internal_r+0x1688>
    5038:	07000184 	movi	fp,6
    503c:	003e8c06 	br	4a70 <___vfprintf_internal_r+0x1688>
    5040:	00c00b44 	movi	r3,45
    5044:	a520003c 	xorhi	r20,r20,32768
    5048:	d8c12f05 	stb	r3,1212(sp)
    504c:	003e8c06 	br	4a80 <___vfprintf_internal_r+0x1698>
    5050:	d8c11f84 	addi	r3,sp,1150
    5054:	102f883a 	mov	r23,r2
    5058:	4839883a 	mov	fp,r9
    505c:	a009883a 	mov	r4,r20
    5060:	01400284 	movi	r5,10
    5064:	182d883a 	mov	r22,r3
    5068:	0002b640 	call	2b64 <__modsi3>
    506c:	10800c04 	addi	r2,r2,48
    5070:	a009883a 	mov	r4,r20
    5074:	b0800005 	stb	r2,0(r22)
    5078:	01400284 	movi	r5,10
    507c:	0002b140 	call	2b14 <__divsi3>
    5080:	1029883a 	mov	r20,r2
    5084:	b0ffffc4 	addi	r3,r22,-1
    5088:	b8bff416 	blt	r23,r2,505c <___vfprintf_internal_r+0x1c74>
    508c:	11400c04 	addi	r5,r2,48
    5090:	b17fffc5 	stb	r5,-1(r22)
    5094:	d8811fc4 	addi	r2,sp,1151
    5098:	e013883a 	mov	r9,fp
    509c:	1880482e 	bgeu	r3,r2,51c0 <___vfprintf_internal_r+0x1dd8>
    50a0:	b007883a 	mov	r3,r22
    50a4:	d9012044 	addi	r4,sp,1153
